ARM GAS  C:\Users\DELLPR~1\AppData\Local\Temp\ccYIRYeN.s 			page 1


   1              		.cpu cortex-m3
   2              		.arch armv7-m
   3              		.fpu softvfp
   4              		.eabi_attribute 20, 1
   5              		.eabi_attribute 21, 1
   6              		.eabi_attribute 23, 3
   7              		.eabi_attribute 24, 1
   8              		.eabi_attribute 25, 1
   9              		.eabi_attribute 26, 1
  10              		.eabi_attribute 30, 1
  11              		.eabi_attribute 34, 1
  12              		.eabi_attribute 18, 4
  13              		.file	"main.c"
  14              		.text
  15              	.Ltext0:
  16              		.cfi_sections	.debug_frame
  17              		.section	.text.MX_GPIO_Init,"ax",%progbits
  18              		.align	1
  19              		.syntax unified
  20              		.thumb
  21              		.thumb_func
  23              	MX_GPIO_Init:
  24              	.LFB78:
  25              		.file 1 "Core/Src/main.c"
   1:Core/Src/main.c **** /* USER CODE BEGIN Header */
   2:Core/Src/main.c **** /**
   3:Core/Src/main.c ****   ******************************************************************************
   4:Core/Src/main.c ****   * @file           : main.c
   5:Core/Src/main.c ****   * @brief          : Main program body
   6:Core/Src/main.c ****   ******************************************************************************
   7:Core/Src/main.c ****   * @attention
   8:Core/Src/main.c ****   *
   9:Core/Src/main.c ****   * <h2><center>&copy; Copyright (c) 2022 STMicroelectronics.
  10:Core/Src/main.c ****   * All rights reserved.</center></h2>
  11:Core/Src/main.c ****   *
  12:Core/Src/main.c ****   * This software component is licensed by ST under BSD 3-Clause license,
  13:Core/Src/main.c ****   * the "License"; You may not use this file except in compliance with the
  14:Core/Src/main.c ****   * License. You may obtain a copy of the License at:
  15:Core/Src/main.c ****   *                        opensource.org/licenses/BSD-3-Clause
  16:Core/Src/main.c ****   *
  17:Core/Src/main.c ****   ******************************************************************************
  18:Core/Src/main.c ****   */
  19:Core/Src/main.c **** /* USER CODE END Header */
  20:Core/Src/main.c **** /* Includes ------------------------------------------------------------------*/
  21:Core/Src/main.c **** #include "main.h"
  22:Core/Src/main.c **** #include "cmsis_os.h"
  23:Core/Src/main.c **** #include <stdio.h>
  24:Core/Src/main.c **** 
  25:Core/Src/main.c **** /* Private includes ----------------------------------------------------------*/
  26:Core/Src/main.c **** /* USER CODE BEGIN Includes */
  27:Core/Src/main.c **** 
  28:Core/Src/main.c **** /* USER CODE END Includes */
  29:Core/Src/main.c **** 
  30:Core/Src/main.c **** /* Private typedef -----------------------------------------------------------*/
  31:Core/Src/main.c **** /* USER CODE BEGIN PTD */
  32:Core/Src/main.c **** 
  33:Core/Src/main.c **** /* USER CODE END PTD */
ARM GAS  C:\Users\DELLPR~1\AppData\Local\Temp\ccYIRYeN.s 			page 2


  34:Core/Src/main.c **** 
  35:Core/Src/main.c **** /* Private define ------------------------------------------------------------*/
  36:Core/Src/main.c **** /* USER CODE BEGIN PD */
  37:Core/Src/main.c **** #define SIZEOFBUFF 20
  38:Core/Src/main.c **** /* USER CODE END PD */
  39:Core/Src/main.c **** 
  40:Core/Src/main.c **** /* Private macro -------------------------------------------------------------*/
  41:Core/Src/main.c **** /* USER CODE BEGIN PM */
  42:Core/Src/main.c **** 
  43:Core/Src/main.c **** /* USER CODE END PM */
  44:Core/Src/main.c **** 
  45:Core/Src/main.c **** /* Private variables ---------------------------------------------------------*/
  46:Core/Src/main.c **** ADC_HandleTypeDef hadc1;
  47:Core/Src/main.c **** 
  48:Core/Src/main.c **** SPI_HandleTypeDef hspi1;
  49:Core/Src/main.c **** 
  50:Core/Src/main.c **** UART_HandleTypeDef huart1;
  51:Core/Src/main.c **** 
  52:Core/Src/main.c **** /* Definitions for defaultTask */
  53:Core/Src/main.c **** osThreadId_t defaultTaskHandle;
  54:Core/Src/main.c **** const osThreadAttr_t defaultTask_attributes = {
  55:Core/Src/main.c ****   .name = "defaultTask",
  56:Core/Src/main.c ****   .stack_size = 128 * 4,
  57:Core/Src/main.c ****   .priority = (osPriority_t) osPriorityNormal,
  58:Core/Src/main.c **** };
  59:Core/Src/main.c **** /* Definitions for EScale_Task */
  60:Core/Src/main.c **** osThreadId_t EScale_TaskHandle;
  61:Core/Src/main.c **** const osThreadAttr_t EScale_Task_attributes = {
  62:Core/Src/main.c ****   .name = "EScale_Task",
  63:Core/Src/main.c ****   .stack_size = 128 * 4,
  64:Core/Src/main.c ****   .priority = (osPriority_t) osPriorityLow,
  65:Core/Src/main.c **** };
  66:Core/Src/main.c **** /* Definitions for UART_Task */
  67:Core/Src/main.c **** osThreadId_t UART_TaskHandle;
  68:Core/Src/main.c **** const osThreadAttr_t UART_Task_attributes = {
  69:Core/Src/main.c ****   .name = "UART_Task",
  70:Core/Src/main.c ****   .stack_size = 128 * 4,
  71:Core/Src/main.c ****   .priority = (osPriority_t) osPriorityLow,
  72:Core/Src/main.c **** };
  73:Core/Src/main.c **** /* Definitions for RFID_Task */
  74:Core/Src/main.c **** osThreadId_t RFID_TaskHandle;
  75:Core/Src/main.c **** const osThreadAttr_t RFID_Task_attributes = {
  76:Core/Src/main.c ****   .name = "RFID_Task",
  77:Core/Src/main.c ****   .stack_size = 128 * 4,
  78:Core/Src/main.c ****   .priority = (osPriority_t) osPriorityLow,
  79:Core/Src/main.c **** };
  80:Core/Src/main.c **** /* USER CODE BEGIN PV */
  81:Core/Src/main.c **** uint16_t u16_ADCVal;
  82:Core/Src/main.c **** osSemaphoreId_t ESCALE_KEY, UART_KEY, RFID_KEY;
  83:Core/Src/main.c **** /* USER CODE END PV */
  84:Core/Src/main.c **** 
  85:Core/Src/main.c **** /* Private function prototypes -----------------------------------------------*/
  86:Core/Src/main.c **** void SystemClock_Config(void);
  87:Core/Src/main.c **** static void MX_GPIO_Init(void);
  88:Core/Src/main.c **** static void MX_ADC1_Init(void);
  89:Core/Src/main.c **** static void MX_SPI1_Init(void);
  90:Core/Src/main.c **** static void MX_USART1_UART_Init(void);
ARM GAS  C:\Users\DELLPR~1\AppData\Local\Temp\ccYIRYeN.s 			page 3


  91:Core/Src/main.c **** void StartDefaultTask(void *argument);
  92:Core/Src/main.c **** void StartESacle_Task(void *argument);
  93:Core/Src/main.c **** void StartUART_Task(void *argument);
  94:Core/Src/main.c **** void StartRFID_Task(void *argument);
  95:Core/Src/main.c **** 
  96:Core/Src/main.c **** /* USER CODE BEGIN PFP */
  97:Core/Src/main.c **** 
  98:Core/Src/main.c **** /* USER CODE END PFP */
  99:Core/Src/main.c **** 
 100:Core/Src/main.c **** /* Private user code ---------------------------------------------------------*/
 101:Core/Src/main.c **** /* USER CODE BEGIN 0 */
 102:Core/Src/main.c **** void HAL_ADC_ConvCpltCallback(ADC_HandleTypeDef* hadc)
 103:Core/Src/main.c **** {
 104:Core/Src/main.c ****   if(hadc->Instance == ADC1)
 105:Core/Src/main.c ****   {
 106:Core/Src/main.c ****     u16_ADCVal = HAL_ADC_GetValue(&hadc1);
 107:Core/Src/main.c ****   }
 108:Core/Src/main.c **** }
 109:Core/Src/main.c **** 
 110:Core/Src/main.c **** /* USER CODE END 0 */
 111:Core/Src/main.c **** 
 112:Core/Src/main.c **** /**
 113:Core/Src/main.c ****   * @brief  The application entry point.
 114:Core/Src/main.c ****   * @retval int
 115:Core/Src/main.c ****   */
 116:Core/Src/main.c **** int main(void)
 117:Core/Src/main.c **** {
 118:Core/Src/main.c ****   /* USER CODE BEGIN 1 */
 119:Core/Src/main.c ****   /* USER CODE END 1 */
 120:Core/Src/main.c **** 
 121:Core/Src/main.c ****   /* MCU Configuration--------------------------------------------------------*/
 122:Core/Src/main.c **** 
 123:Core/Src/main.c ****   /* Reset of all peripherals, Initializes the Flash interface and the Systick. */
 124:Core/Src/main.c ****   HAL_Init();
 125:Core/Src/main.c **** 
 126:Core/Src/main.c ****   /* USER CODE BEGIN Init */
 127:Core/Src/main.c **** 
 128:Core/Src/main.c ****   /* USER CODE END Init */
 129:Core/Src/main.c **** 
 130:Core/Src/main.c ****   /* Configure the system clock */
 131:Core/Src/main.c ****   SystemClock_Config();
 132:Core/Src/main.c **** 
 133:Core/Src/main.c ****   /* USER CODE BEGIN SysInit */
 134:Core/Src/main.c **** 
 135:Core/Src/main.c ****   /* USER CODE END SysInit */
 136:Core/Src/main.c **** 
 137:Core/Src/main.c ****   /* Initialize all configured peripherals */
 138:Core/Src/main.c ****   MX_GPIO_Init();
 139:Core/Src/main.c ****   MX_ADC1_Init();
 140:Core/Src/main.c ****   MX_SPI1_Init();
 141:Core/Src/main.c ****   MX_USART1_UART_Init();
 142:Core/Src/main.c ****   /* USER CODE BEGIN 2 */
 143:Core/Src/main.c **** 
 144:Core/Src/main.c ****   /* USER CODE END 2 */
 145:Core/Src/main.c **** 
 146:Core/Src/main.c ****   /* Init scheduler */
 147:Core/Src/main.c ****   osKernelInitialize();
ARM GAS  C:\Users\DELLPR~1\AppData\Local\Temp\ccYIRYeN.s 			page 4


 148:Core/Src/main.c **** 
 149:Core/Src/main.c ****   /* USER CODE BEGIN RTOS_MUTEX */
 150:Core/Src/main.c ****   /* add mutexes, ... */
 151:Core/Src/main.c ****   /* USER CODE END RTOS_MUTEX */
 152:Core/Src/main.c **** 
 153:Core/Src/main.c ****   /* USER CODE BEGIN RTOS_SEMAPHORES */
 154:Core/Src/main.c ****   /* add semaphores, ... */
 155:Core/Src/main.c ****   /* USER CODE END RTOS_SEMAPHORES */
 156:Core/Src/main.c **** 
 157:Core/Src/main.c ****   /* USER CODE BEGIN RTOS_TIMERS */
 158:Core/Src/main.c ****   /* start timers, add new ones, ... */
 159:Core/Src/main.c ****   /* USER CODE END RTOS_TIMERS */
 160:Core/Src/main.c **** 
 161:Core/Src/main.c ****   /* USER CODE BEGIN RTOS_QUEUES */
 162:Core/Src/main.c ****   /* add queues, ... */
 163:Core/Src/main.c ****   /* USER CODE END RTOS_QUEUES */
 164:Core/Src/main.c **** 
 165:Core/Src/main.c ****   /* Create the thread(s) */
 166:Core/Src/main.c ****   /* creation of defaultTask */
 167:Core/Src/main.c ****   defaultTaskHandle = osThreadNew(StartDefaultTask, NULL, &defaultTask_attributes);
 168:Core/Src/main.c **** 
 169:Core/Src/main.c ****   /* creation of EScale_Task */
 170:Core/Src/main.c ****   EScale_TaskHandle = osThreadNew(StartESacle_Task, NULL, &EScale_Task_attributes);
 171:Core/Src/main.c **** 
 172:Core/Src/main.c ****   /* creation of UART_Task */
 173:Core/Src/main.c ****   UART_TaskHandle = osThreadNew(StartUART_Task, NULL, &UART_Task_attributes);
 174:Core/Src/main.c **** 
 175:Core/Src/main.c ****   /* creation of RFID_Task */
 176:Core/Src/main.c ****   RFID_TaskHandle = osThreadNew(StartRFID_Task, NULL, &RFID_Task_attributes);
 177:Core/Src/main.c **** 
 178:Core/Src/main.c ****   /* USER CODE BEGIN RTOS_THREADS */
 179:Core/Src/main.c ****   /* add threads, ... */
 180:Core/Src/main.c ****   /* USER CODE END RTOS_THREADS */
 181:Core/Src/main.c **** 
 182:Core/Src/main.c ****   /* USER CODE BEGIN RTOS_EVENTS */
 183:Core/Src/main.c ****   /* add events, ... */
 184:Core/Src/main.c ****   /* USER CODE END RTOS_EVENTS */
 185:Core/Src/main.c **** 
 186:Core/Src/main.c ****   /* Start scheduler */
 187:Core/Src/main.c ****   osKernelStart();
 188:Core/Src/main.c **** 
 189:Core/Src/main.c ****   /* We should never get here as control is now taken by the scheduler */
 190:Core/Src/main.c ****   /* Infinite loop */
 191:Core/Src/main.c ****   /* USER CODE BEGIN WHILE */
 192:Core/Src/main.c ****   while (1)
 193:Core/Src/main.c ****   {
 194:Core/Src/main.c ****     /* USER CODE END WHILE */
 195:Core/Src/main.c **** 
 196:Core/Src/main.c ****     /* USER CODE BEGIN 3 */
 197:Core/Src/main.c ****   }
 198:Core/Src/main.c ****   /* USER CODE END 3 */
 199:Core/Src/main.c **** }
 200:Core/Src/main.c **** 
 201:Core/Src/main.c **** /**
 202:Core/Src/main.c ****   * @brief System Clock Configuration
 203:Core/Src/main.c ****   * @retval None
 204:Core/Src/main.c ****   */
ARM GAS  C:\Users\DELLPR~1\AppData\Local\Temp\ccYIRYeN.s 			page 5


 205:Core/Src/main.c **** void SystemClock_Config(void)
 206:Core/Src/main.c **** {
 207:Core/Src/main.c ****   RCC_OscInitTypeDef RCC_OscInitStruct = {0};
 208:Core/Src/main.c ****   RCC_ClkInitTypeDef RCC_ClkInitStruct = {0};
 209:Core/Src/main.c ****   RCC_PeriphCLKInitTypeDef PeriphClkInit = {0};
 210:Core/Src/main.c **** 
 211:Core/Src/main.c ****   /** Initializes the RCC Oscillators according to the specified parameters
 212:Core/Src/main.c ****   * in the RCC_OscInitTypeDef structure.
 213:Core/Src/main.c ****   */
 214:Core/Src/main.c ****   RCC_OscInitStruct.OscillatorType = RCC_OSCILLATORTYPE_HSI;
 215:Core/Src/main.c ****   RCC_OscInitStruct.HSIState = RCC_HSI_ON;
 216:Core/Src/main.c ****   RCC_OscInitStruct.HSICalibrationValue = RCC_HSICALIBRATION_DEFAULT;
 217:Core/Src/main.c ****   RCC_OscInitStruct.PLL.PLLState = RCC_PLL_NONE;
 218:Core/Src/main.c ****   if (HAL_RCC_OscConfig(&RCC_OscInitStruct) != HAL_OK)
 219:Core/Src/main.c ****   {
 220:Core/Src/main.c ****     Error_Handler();
 221:Core/Src/main.c ****   }
 222:Core/Src/main.c ****   /** Initializes the CPU, AHB and APB buses clocks
 223:Core/Src/main.c ****   */
 224:Core/Src/main.c ****   RCC_ClkInitStruct.ClockType = RCC_CLOCKTYPE_HCLK|RCC_CLOCKTYPE_SYSCLK
 225:Core/Src/main.c ****                               |RCC_CLOCKTYPE_PCLK1|RCC_CLOCKTYPE_PCLK2;
 226:Core/Src/main.c ****   RCC_ClkInitStruct.SYSCLKSource = RCC_SYSCLKSOURCE_HSI;
 227:Core/Src/main.c ****   RCC_ClkInitStruct.AHBCLKDivider = RCC_SYSCLK_DIV1;
 228:Core/Src/main.c ****   RCC_ClkInitStruct.APB1CLKDivider = RCC_HCLK_DIV1;
 229:Core/Src/main.c ****   RCC_ClkInitStruct.APB2CLKDivider = RCC_HCLK_DIV1;
 230:Core/Src/main.c **** 
 231:Core/Src/main.c ****   if (HAL_RCC_ClockConfig(&RCC_ClkInitStruct, FLASH_LATENCY_0) != HAL_OK)
 232:Core/Src/main.c ****   {
 233:Core/Src/main.c ****     Error_Handler();
 234:Core/Src/main.c ****   }
 235:Core/Src/main.c ****   PeriphClkInit.PeriphClockSelection = RCC_PERIPHCLK_ADC;
 236:Core/Src/main.c ****   PeriphClkInit.AdcClockSelection = RCC_ADCPCLK2_DIV2;
 237:Core/Src/main.c ****   if (HAL_RCCEx_PeriphCLKConfig(&PeriphClkInit) != HAL_OK)
 238:Core/Src/main.c ****   {
 239:Core/Src/main.c ****     Error_Handler();
 240:Core/Src/main.c ****   }
 241:Core/Src/main.c **** }
 242:Core/Src/main.c **** 
 243:Core/Src/main.c **** /**
 244:Core/Src/main.c ****   * @brief ADC1 Initialization Function
 245:Core/Src/main.c ****   * @param None
 246:Core/Src/main.c ****   * @retval None
 247:Core/Src/main.c ****   */
 248:Core/Src/main.c **** static void MX_ADC1_Init(void)
 249:Core/Src/main.c **** {
 250:Core/Src/main.c **** 
 251:Core/Src/main.c ****   /* USER CODE BEGIN ADC1_Init 0 */
 252:Core/Src/main.c **** 
 253:Core/Src/main.c ****   /* USER CODE END ADC1_Init 0 */
 254:Core/Src/main.c **** 
 255:Core/Src/main.c ****   ADC_ChannelConfTypeDef sConfig = {0};
 256:Core/Src/main.c **** 
 257:Core/Src/main.c ****   /* USER CODE BEGIN ADC1_Init 1 */
 258:Core/Src/main.c **** 
 259:Core/Src/main.c ****   /* USER CODE END ADC1_Init 1 */
 260:Core/Src/main.c ****   /** Common config
 261:Core/Src/main.c ****   */
ARM GAS  C:\Users\DELLPR~1\AppData\Local\Temp\ccYIRYeN.s 			page 6


 262:Core/Src/main.c ****   hadc1.Instance = ADC1;
 263:Core/Src/main.c ****   hadc1.Init.ScanConvMode = ADC_SCAN_DISABLE;
 264:Core/Src/main.c ****   hadc1.Init.ContinuousConvMode = DISABLE;
 265:Core/Src/main.c ****   hadc1.Init.DiscontinuousConvMode = DISABLE;
 266:Core/Src/main.c ****   hadc1.Init.ExternalTrigConv = ADC_SOFTWARE_START;
 267:Core/Src/main.c ****   hadc1.Init.DataAlign = ADC_DATAALIGN_RIGHT;
 268:Core/Src/main.c ****   hadc1.Init.NbrOfConversion = 1;
 269:Core/Src/main.c ****   if (HAL_ADC_Init(&hadc1) != HAL_OK)
 270:Core/Src/main.c ****   {
 271:Core/Src/main.c ****     Error_Handler();
 272:Core/Src/main.c ****   }
 273:Core/Src/main.c ****   /** Configure Regular Channel
 274:Core/Src/main.c ****   */
 275:Core/Src/main.c ****   sConfig.Channel = ADC_CHANNEL_0;
 276:Core/Src/main.c ****   sConfig.Rank = ADC_REGULAR_RANK_1;
 277:Core/Src/main.c ****   sConfig.SamplingTime = ADC_SAMPLETIME_1CYCLE_5;
 278:Core/Src/main.c ****   if (HAL_ADC_ConfigChannel(&hadc1, &sConfig) != HAL_OK)
 279:Core/Src/main.c ****   {
 280:Core/Src/main.c ****     Error_Handler();
 281:Core/Src/main.c ****   }
 282:Core/Src/main.c ****   /* USER CODE BEGIN ADC1_Init 2 */
 283:Core/Src/main.c **** 
 284:Core/Src/main.c ****   /* USER CODE END ADC1_Init 2 */
 285:Core/Src/main.c **** 
 286:Core/Src/main.c **** }
 287:Core/Src/main.c **** 
 288:Core/Src/main.c **** /**
 289:Core/Src/main.c ****   * @brief SPI1 Initialization Function
 290:Core/Src/main.c ****   * @param None
 291:Core/Src/main.c ****   * @retval None
 292:Core/Src/main.c ****   */
 293:Core/Src/main.c **** static void MX_SPI1_Init(void)
 294:Core/Src/main.c **** {
 295:Core/Src/main.c **** 
 296:Core/Src/main.c ****   /* USER CODE BEGIN SPI1_Init 0 */
 297:Core/Src/main.c **** 
 298:Core/Src/main.c ****   /* USER CODE END SPI1_Init 0 */
 299:Core/Src/main.c **** 
 300:Core/Src/main.c ****   /* USER CODE BEGIN SPI1_Init 1 */
 301:Core/Src/main.c **** 
 302:Core/Src/main.c ****   /* USER CODE END SPI1_Init 1 */
 303:Core/Src/main.c ****   /* SPI1 parameter configuration*/
 304:Core/Src/main.c ****   hspi1.Instance = SPI1;
 305:Core/Src/main.c ****   hspi1.Init.Mode = SPI_MODE_MASTER;
 306:Core/Src/main.c ****   hspi1.Init.Direction = SPI_DIRECTION_2LINES;
 307:Core/Src/main.c ****   hspi1.Init.DataSize = SPI_DATASIZE_8BIT;
 308:Core/Src/main.c ****   hspi1.Init.CLKPolarity = SPI_POLARITY_LOW;
 309:Core/Src/main.c ****   hspi1.Init.CLKPhase = SPI_PHASE_1EDGE;
 310:Core/Src/main.c ****   hspi1.Init.NSS = SPI_NSS_SOFT;
 311:Core/Src/main.c ****   hspi1.Init.BaudRatePrescaler = SPI_BAUDRATEPRESCALER_2;
 312:Core/Src/main.c ****   hspi1.Init.FirstBit = SPI_FIRSTBIT_MSB;
 313:Core/Src/main.c ****   hspi1.Init.TIMode = SPI_TIMODE_DISABLE;
 314:Core/Src/main.c ****   hspi1.Init.CRCCalculation = SPI_CRCCALCULATION_DISABLE;
 315:Core/Src/main.c ****   hspi1.Init.CRCPolynomial = 10;
 316:Core/Src/main.c ****   if (HAL_SPI_Init(&hspi1) != HAL_OK)
 317:Core/Src/main.c ****   {
 318:Core/Src/main.c ****     Error_Handler();
ARM GAS  C:\Users\DELLPR~1\AppData\Local\Temp\ccYIRYeN.s 			page 7


 319:Core/Src/main.c ****   }
 320:Core/Src/main.c ****   /* USER CODE BEGIN SPI1_Init 2 */
 321:Core/Src/main.c **** 
 322:Core/Src/main.c ****   /* USER CODE END SPI1_Init 2 */
 323:Core/Src/main.c **** 
 324:Core/Src/main.c **** }
 325:Core/Src/main.c **** 
 326:Core/Src/main.c **** /**
 327:Core/Src/main.c ****   * @brief USART1 Initialization Function
 328:Core/Src/main.c ****   * @param None
 329:Core/Src/main.c ****   * @retval None
 330:Core/Src/main.c ****   */
 331:Core/Src/main.c **** static void MX_USART1_UART_Init(void)
 332:Core/Src/main.c **** {
 333:Core/Src/main.c **** 
 334:Core/Src/main.c ****   /* USER CODE BEGIN USART1_Init 0 */
 335:Core/Src/main.c **** 
 336:Core/Src/main.c ****   /* USER CODE END USART1_Init 0 */
 337:Core/Src/main.c **** 
 338:Core/Src/main.c ****   /* USER CODE BEGIN USART1_Init 1 */
 339:Core/Src/main.c **** 
 340:Core/Src/main.c ****   /* USER CODE END USART1_Init 1 */
 341:Core/Src/main.c ****   huart1.Instance = USART1;
 342:Core/Src/main.c ****   huart1.Init.BaudRate = 115200;
 343:Core/Src/main.c ****   huart1.Init.WordLength = UART_WORDLENGTH_8B;
 344:Core/Src/main.c ****   huart1.Init.StopBits = UART_STOPBITS_1;
 345:Core/Src/main.c ****   huart1.Init.Parity = UART_PARITY_NONE;
 346:Core/Src/main.c ****   huart1.Init.Mode = UART_MODE_TX_RX;
 347:Core/Src/main.c ****   huart1.Init.HwFlowCtl = UART_HWCONTROL_NONE;
 348:Core/Src/main.c ****   huart1.Init.OverSampling = UART_OVERSAMPLING_16;
 349:Core/Src/main.c ****   if (HAL_UART_Init(&huart1) != HAL_OK)
 350:Core/Src/main.c ****   {
 351:Core/Src/main.c ****     Error_Handler();
 352:Core/Src/main.c ****   }
 353:Core/Src/main.c ****   /* USER CODE BEGIN USART1_Init 2 */
 354:Core/Src/main.c **** 
 355:Core/Src/main.c ****   /* USER CODE END USART1_Init 2 */
 356:Core/Src/main.c **** 
 357:Core/Src/main.c **** }
 358:Core/Src/main.c **** 
 359:Core/Src/main.c **** /**
 360:Core/Src/main.c ****   * @brief GPIO Initialization Function
 361:Core/Src/main.c ****   * @param None
 362:Core/Src/main.c ****   * @retval None
 363:Core/Src/main.c ****   */
 364:Core/Src/main.c **** static void MX_GPIO_Init(void)
 365:Core/Src/main.c **** {
  26              		.loc 1 365 1 view -0
  27              		.cfi_startproc
  28              		@ args = 0, pretend = 0, frame = 8
  29              		@ frame_needed = 0, uses_anonymous_args = 0
  30              		@ link register save eliminated.
  31 0000 82B0     		sub	sp, sp, #8
  32              	.LCFI0:
  33              		.cfi_def_cfa_offset 8
 366:Core/Src/main.c **** 
 367:Core/Src/main.c ****   /* GPIO Ports Clock Enable */
ARM GAS  C:\Users\DELLPR~1\AppData\Local\Temp\ccYIRYeN.s 			page 8


 368:Core/Src/main.c ****   __HAL_RCC_GPIOA_CLK_ENABLE();
  34              		.loc 1 368 3 view .LVU1
  35              	.LBB4:
  36              		.loc 1 368 3 view .LVU2
  37              		.loc 1 368 3 view .LVU3
  38 0002 064B     		ldr	r3, .L3
  39 0004 9A69     		ldr	r2, [r3, #24]
  40 0006 42F00402 		orr	r2, r2, #4
  41 000a 9A61     		str	r2, [r3, #24]
  42              		.loc 1 368 3 view .LVU4
  43 000c 9B69     		ldr	r3, [r3, #24]
  44 000e 03F00403 		and	r3, r3, #4
  45 0012 0193     		str	r3, [sp, #4]
  46              		.loc 1 368 3 view .LVU5
  47 0014 019B     		ldr	r3, [sp, #4]
  48              	.LBE4:
  49              		.loc 1 368 3 view .LVU6
 369:Core/Src/main.c **** 
 370:Core/Src/main.c **** }
  50              		.loc 1 370 1 is_stmt 0 view .LVU7
  51 0016 02B0     		add	sp, sp, #8
  52              	.LCFI1:
  53              		.cfi_def_cfa_offset 0
  54              		@ sp needed
  55 0018 7047     		bx	lr
  56              	.L4:
  57 001a 00BF     		.align	2
  58              	.L3:
  59 001c 00100240 		.word	1073876992
  60              		.cfi_endproc
  61              	.LFE78:
  63              		.section	.text.StartDefaultTask,"ax",%progbits
  64              		.align	1
  65              		.global	StartDefaultTask
  66              		.syntax unified
  67              		.thumb
  68              		.thumb_func
  70              	StartDefaultTask:
  71              	.LFB79:
 371:Core/Src/main.c **** 
 372:Core/Src/main.c **** /* USER CODE BEGIN 4 */
 373:Core/Src/main.c **** 
 374:Core/Src/main.c **** /* USER CODE END 4 */
 375:Core/Src/main.c **** 
 376:Core/Src/main.c **** /* USER CODE BEGIN Header_StartDefaultTask */
 377:Core/Src/main.c **** /**
 378:Core/Src/main.c ****   * @brief  Function implementing the defaultTask thread.
 379:Core/Src/main.c ****   * @param  argument: Not used
 380:Core/Src/main.c ****   * @retval None
 381:Core/Src/main.c ****   */
 382:Core/Src/main.c **** /* USER CODE END Header_StartDefaultTask */
 383:Core/Src/main.c **** void StartDefaultTask(void *argument)
 384:Core/Src/main.c **** {
  72              		.loc 1 384 1 is_stmt 1 view -0
  73              		.cfi_startproc
  74              		@ Volatile: function does not return.
  75              		@ args = 0, pretend = 0, frame = 0
ARM GAS  C:\Users\DELLPR~1\AppData\Local\Temp\ccYIRYeN.s 			page 9


  76              		@ frame_needed = 0, uses_anonymous_args = 0
  77              	.LVL0:
  78              		.loc 1 384 1 is_stmt 0 view .LVU9
  79 0000 08B5     		push	{r3, lr}
  80              	.LCFI2:
  81              		.cfi_def_cfa_offset 8
  82              		.cfi_offset 3, -8
  83              		.cfi_offset 14, -4
  84              	.LVL1:
  85              	.L6:
 385:Core/Src/main.c ****   /* USER CODE BEGIN 5 */
 386:Core/Src/main.c ****   /* Infinite loop */
 387:Core/Src/main.c ****   for(;;)
  86              		.loc 1 387 3 is_stmt 1 discriminator 1 view .LVU10
 388:Core/Src/main.c ****   {
 389:Core/Src/main.c ****     osDelay(1);
  87              		.loc 1 389 5 discriminator 1 view .LVU11
  88 0002 0120     		movs	r0, #1
  89 0004 FFF7FEFF 		bl	osDelay
  90              	.LVL2:
 387:Core/Src/main.c ****   {
  91              		.loc 1 387 3 discriminator 1 view .LVU12
  92 0008 FBE7     		b	.L6
  93              		.cfi_endproc
  94              	.LFE79:
  96              		.section	.text.StartUART_Task,"ax",%progbits
  97              		.align	1
  98              		.global	StartUART_Task
  99              		.syntax unified
 100              		.thumb
 101              		.thumb_func
 103              	StartUART_Task:
 104              	.LFB81:
 390:Core/Src/main.c ****   }
 391:Core/Src/main.c ****   /* USER CODE END 5 */
 392:Core/Src/main.c **** }
 393:Core/Src/main.c **** 
 394:Core/Src/main.c **** /* USER CODE BEGIN Header_StartESacle_Task */
 395:Core/Src/main.c **** /**
 396:Core/Src/main.c **** * @brief Function implementing the EScale_Task thread.
 397:Core/Src/main.c **** * @param argument: Not used
 398:Core/Src/main.c **** * @retval None
 399:Core/Src/main.c **** */
 400:Core/Src/main.c **** /* USER CODE END Header_StartESacle_Task */
 401:Core/Src/main.c **** void StartESacle_Task(void *argument)
 402:Core/Src/main.c **** {
 403:Core/Src/main.c ****   /* USER CODE BEGIN StartESacle_Task */
 404:Core/Src/main.c ****   __IO uint32_t tick = osKernelGetTickCount();
 405:Core/Src/main.c ****   float weight_value = 0;
 406:Core/Src/main.c ****   for(;;)
 407:Core/Src/main.c ****   {
 408:Core/Src/main.c ****     osSemaphoreAcquire(ESCALE_KEY,osWaitForever);
 409:Core/Src/main.c ****     HAL_ADC_Start_IT(&hadc1);
 410:Core/Src/main.c ****     weight_value = (((float)u16_ADCVal)/4095)*100;
 411:Core/Src/main.c ****     HAL_ADC_Stop_IT(&hadc1);
 412:Core/Src/main.c **** 
 413:Core/Src/main.c ****     osSemaphoreRelease(ESCALE_KEY);
ARM GAS  C:\Users\DELLPR~1\AppData\Local\Temp\ccYIRYeN.s 			page 10


 414:Core/Src/main.c ****     osDelayUntil(tick);
 415:Core/Src/main.c ****   }
 416:Core/Src/main.c ****   /* USER CODE END StartESacle_Task */
 417:Core/Src/main.c **** }
 418:Core/Src/main.c **** 
 419:Core/Src/main.c **** /* USER CODE BEGIN Header_StartUART_Task */
 420:Core/Src/main.c **** /**
 421:Core/Src/main.c **** * @brief Function implementing the UART_Task thread.
 422:Core/Src/main.c **** * @param argument: Not used
 423:Core/Src/main.c **** * @retval None
 424:Core/Src/main.c **** */
 425:Core/Src/main.c **** /* USER CODE END Header_StartUART_Task */
 426:Core/Src/main.c **** void StartUART_Task(void *argument)
 427:Core/Src/main.c **** {
 105              		.loc 1 427 1 view -0
 106              		.cfi_startproc
 107              		@ Volatile: function does not return.
 108              		@ args = 0, pretend = 0, frame = 0
 109              		@ frame_needed = 0, uses_anonymous_args = 0
 110              	.LVL3:
 111              		.loc 1 427 1 is_stmt 0 view .LVU14
 112 0000 08B5     		push	{r3, lr}
 113              	.LCFI3:
 114              		.cfi_def_cfa_offset 8
 115              		.cfi_offset 3, -8
 116              		.cfi_offset 14, -4
 117              	.LVL4:
 118              	.L9:
 428:Core/Src/main.c ****   /* USER CODE BEGIN StartUART_Task */
 429:Core/Src/main.c ****   /* Infinite loop */
 430:Core/Src/main.c ****   for(;;)
 119              		.loc 1 430 3 is_stmt 1 discriminator 1 view .LVU15
 431:Core/Src/main.c ****   {
 432:Core/Src/main.c ****     osDelay(1);
 120              		.loc 1 432 5 discriminator 1 view .LVU16
 121 0002 0120     		movs	r0, #1
 122 0004 FFF7FEFF 		bl	osDelay
 123              	.LVL5:
 430:Core/Src/main.c ****   {
 124              		.loc 1 430 3 discriminator 1 view .LVU17
 125 0008 FBE7     		b	.L9
 126              		.cfi_endproc
 127              	.LFE81:
 129              		.section	.text.StartESacle_Task,"ax",%progbits
 130              		.align	1
 131              		.global	StartESacle_Task
 132              		.syntax unified
 133              		.thumb
 134              		.thumb_func
 136              	StartESacle_Task:
 137              	.LVL6:
 138              	.LFB80:
 402:Core/Src/main.c ****   /* USER CODE BEGIN StartESacle_Task */
 139              		.loc 1 402 1 view -0
 140              		.cfi_startproc
 141              		@ args = 0, pretend = 0, frame = 8
 142              		@ frame_needed = 0, uses_anonymous_args = 0
ARM GAS  C:\Users\DELLPR~1\AppData\Local\Temp\ccYIRYeN.s 			page 11


 402:Core/Src/main.c ****   /* USER CODE BEGIN StartESacle_Task */
 143              		.loc 1 402 1 is_stmt 0 view .LVU19
 144 0000 30B5     		push	{r4, r5, lr}
 145              	.LCFI4:
 146              		.cfi_def_cfa_offset 12
 147              		.cfi_offset 4, -12
 148              		.cfi_offset 5, -8
 149              		.cfi_offset 14, -4
 150 0002 83B0     		sub	sp, sp, #12
 151              	.LCFI5:
 152              		.cfi_def_cfa_offset 24
 404:Core/Src/main.c ****   float weight_value = 0;
 153              		.loc 1 404 3 is_stmt 1 view .LVU20
 404:Core/Src/main.c ****   float weight_value = 0;
 154              		.loc 1 404 24 is_stmt 0 view .LVU21
 155 0004 FFF7FEFF 		bl	osKernelGetTickCount
 156              	.LVL7:
 404:Core/Src/main.c ****   float weight_value = 0;
 157              		.loc 1 404 17 view .LVU22
 158 0008 0190     		str	r0, [sp, #4]
 405:Core/Src/main.c ****   for(;;)
 159              		.loc 1 405 3 is_stmt 1 view .LVU23
 160              	.LVL8:
 161              	.L12:
 406:Core/Src/main.c ****   {
 162              		.loc 1 406 3 discriminator 1 view .LVU24
 408:Core/Src/main.c ****     HAL_ADC_Start_IT(&hadc1);
 163              		.loc 1 408 5 discriminator 1 view .LVU25
 164 000a 0A4C     		ldr	r4, .L14
 165 000c 4FF0FF31 		mov	r1, #-1
 166 0010 2068     		ldr	r0, [r4]
 167 0012 FFF7FEFF 		bl	osSemaphoreAcquire
 168              	.LVL9:
 409:Core/Src/main.c ****     weight_value = (((float)u16_ADCVal)/4095)*100;
 169              		.loc 1 409 5 discriminator 1 view .LVU26
 170 0016 084D     		ldr	r5, .L14+4
 171 0018 2846     		mov	r0, r5
 172 001a FFF7FEFF 		bl	HAL_ADC_Start_IT
 173              	.LVL10:
 410:Core/Src/main.c ****     HAL_ADC_Stop_IT(&hadc1);
 174              		.loc 1 410 5 discriminator 1 view .LVU27
 411:Core/Src/main.c **** 
 175              		.loc 1 411 5 discriminator 1 view .LVU28
 176 001e 2846     		mov	r0, r5
 177 0020 FFF7FEFF 		bl	HAL_ADC_Stop_IT
 178              	.LVL11:
 413:Core/Src/main.c ****     osDelayUntil(tick);
 179              		.loc 1 413 5 discriminator 1 view .LVU29
 180 0024 2068     		ldr	r0, [r4]
 181 0026 FFF7FEFF 		bl	osSemaphoreRelease
 182              	.LVL12:
 414:Core/Src/main.c ****   }
 183              		.loc 1 414 5 discriminator 1 view .LVU30
 184 002a 0198     		ldr	r0, [sp, #4]
 185 002c FFF7FEFF 		bl	osDelayUntil
 186              	.LVL13:
 406:Core/Src/main.c ****   {
ARM GAS  C:\Users\DELLPR~1\AppData\Local\Temp\ccYIRYeN.s 			page 12


 187              		.loc 1 406 3 discriminator 1 view .LVU31
 188 0030 EBE7     		b	.L12
 189              	.L15:
 190 0032 00BF     		.align	2
 191              	.L14:
 192 0034 00000000 		.word	.LANCHOR0
 193 0038 00000000 		.word	.LANCHOR1
 194              		.cfi_endproc
 195              	.LFE80:
 197              		.section	.text.StartRFID_Task,"ax",%progbits
 198              		.align	1
 199              		.global	StartRFID_Task
 200              		.syntax unified
 201              		.thumb
 202              		.thumb_func
 204              	StartRFID_Task:
 205              	.LVL14:
 206              	.LFB82:
 433:Core/Src/main.c ****   }
 434:Core/Src/main.c ****   /* USER CODE END StartUART_Task */
 435:Core/Src/main.c **** }
 436:Core/Src/main.c **** 
 437:Core/Src/main.c **** /* USER CODE BEGIN Header_StartRFID_Task */
 438:Core/Src/main.c **** /**
 439:Core/Src/main.c **** * @brief Function implementing the RFID_Task thread.
 440:Core/Src/main.c **** * @param argument: Not used
 441:Core/Src/main.c **** * @retval None
 442:Core/Src/main.c **** */
 443:Core/Src/main.c **** /* USER CODE END Header_StartRFID_Task */
 444:Core/Src/main.c **** void StartRFID_Task(void *argument)
 445:Core/Src/main.c **** {
 207              		.loc 1 445 1 view -0
 208              		.cfi_startproc
 209              		@ Volatile: function does not return.
 210              		@ args = 0, pretend = 0, frame = 24
 211              		@ frame_needed = 0, uses_anonymous_args = 0
 212              		.loc 1 445 1 is_stmt 0 view .LVU33
 213 0000 00B5     		push	{lr}
 214              	.LCFI6:
 215              		.cfi_def_cfa_offset 4
 216              		.cfi_offset 14, -4
 217 0002 87B0     		sub	sp, sp, #28
 218              	.LCFI7:
 219              		.cfi_def_cfa_offset 32
 446:Core/Src/main.c ****   /* USER CODE BEGIN StartRFID_Task */
 447:Core/Src/main.c ****   __IO uint32_t tick = osKernelGetTickCount();
 220              		.loc 1 447 3 is_stmt 1 view .LVU34
 221              		.loc 1 447 24 is_stmt 0 view .LVU35
 222 0004 FFF7FEFF 		bl	osKernelGetTickCount
 223              	.LVL15:
 224              		.loc 1 447 17 view .LVU36
 225 0008 0590     		str	r0, [sp, #20]
 448:Core/Src/main.c ****   uint8_t u8_SPI1_TxBuffer[SIZEOFBUFF] = "MASTER SEND";
 226              		.loc 1 448 3 is_stmt 1 view .LVU37
 227              		.loc 1 448 11 is_stmt 0 view .LVU38
 228 000a 0E4A     		ldr	r2, .L19
 229 000c 6B46     		mov	r3, sp
ARM GAS  C:\Users\DELLPR~1\AppData\Local\Temp\ccYIRYeN.s 			page 13


 230 000e 07CA     		ldm	r2, {r0, r1, r2}
 231 0010 83E80700 		stm	r3, {r0, r1, r2}
 232 0014 0023     		movs	r3, #0
 233 0016 0393     		str	r3, [sp, #12]
 234 0018 0493     		str	r3, [sp, #16]
 235              	.L17:
 449:Core/Src/main.c ****   /* Infinite loop */
 450:Core/Src/main.c ****   for(;;)
 236              		.loc 1 450 3 is_stmt 1 discriminator 1 view .LVU39
 451:Core/Src/main.c ****   {
 452:Core/Src/main.c ****     HAL_GPIO_WritePin(GPIOA, GPIO_PIN_4, GPIO_PIN_RESET);
 237              		.loc 1 452 5 discriminator 1 view .LVU40
 238 001a 0B4C     		ldr	r4, .L19+4
 239 001c 0022     		movs	r2, #0
 240 001e 1021     		movs	r1, #16
 241 0020 2046     		mov	r0, r4
 242 0022 FFF7FEFF 		bl	HAL_GPIO_WritePin
 243              	.LVL16:
 453:Core/Src/main.c ****     HAL_SPI_Transmit(&hspi1, u8_SPI1_TxBuffer, SIZEOFBUFF, 100);
 244              		.loc 1 453 5 discriminator 1 view .LVU41
 245 0026 6423     		movs	r3, #100
 246 0028 1422     		movs	r2, #20
 247 002a 6946     		mov	r1, sp
 248 002c 0748     		ldr	r0, .L19+8
 249 002e FFF7FEFF 		bl	HAL_SPI_Transmit
 250              	.LVL17:
 454:Core/Src/main.c ****     HAL_GPIO_WritePin(GPIOA, GPIO_PIN_4, GPIO_PIN_SET);
 251              		.loc 1 454 5 discriminator 1 view .LVU42
 252 0032 0122     		movs	r2, #1
 253 0034 1021     		movs	r1, #16
 254 0036 2046     		mov	r0, r4
 255 0038 FFF7FEFF 		bl	HAL_GPIO_WritePin
 256              	.LVL18:
 455:Core/Src/main.c ****     osDelayUntil(tick);
 257              		.loc 1 455 5 discriminator 1 view .LVU43
 258 003c 0598     		ldr	r0, [sp, #20]
 259 003e FFF7FEFF 		bl	osDelayUntil
 260              	.LVL19:
 450:Core/Src/main.c ****   {
 261              		.loc 1 450 3 discriminator 1 view .LVU44
 262 0042 EAE7     		b	.L17
 263              	.L20:
 264              		.align	2
 265              	.L19:
 266 0044 00000000 		.word	.LANCHOR2
 267 0048 00080140 		.word	1073809408
 268 004c 00000000 		.word	.LANCHOR3
 269              		.cfi_endproc
 270              	.LFE82:
 272              		.section	.text.HAL_ADC_ConvCpltCallback,"ax",%progbits
 273              		.align	1
 274              		.global	HAL_ADC_ConvCpltCallback
 275              		.syntax unified
 276              		.thumb
 277              		.thumb_func
 279              	HAL_ADC_ConvCpltCallback:
 280              	.LVL20:
ARM GAS  C:\Users\DELLPR~1\AppData\Local\Temp\ccYIRYeN.s 			page 14


 281              	.LFB72:
 103:Core/Src/main.c ****   if(hadc->Instance == ADC1)
 282              		.loc 1 103 1 view -0
 283              		.cfi_startproc
 284              		@ args = 0, pretend = 0, frame = 0
 285              		@ frame_needed = 0, uses_anonymous_args = 0
 103:Core/Src/main.c ****   if(hadc->Instance == ADC1)
 286              		.loc 1 103 1 is_stmt 0 view .LVU46
 287 0000 08B5     		push	{r3, lr}
 288              	.LCFI8:
 289              		.cfi_def_cfa_offset 8
 290              		.cfi_offset 3, -8
 291              		.cfi_offset 14, -4
 104:Core/Src/main.c ****   {
 292              		.loc 1 104 3 is_stmt 1 view .LVU47
 104:Core/Src/main.c ****   {
 293              		.loc 1 104 10 is_stmt 0 view .LVU48
 294 0002 0268     		ldr	r2, [r0]
 104:Core/Src/main.c ****   {
 295              		.loc 1 104 5 view .LVU49
 296 0004 044B     		ldr	r3, .L25
 297 0006 9A42     		cmp	r2, r3
 298 0008 00D0     		beq	.L24
 299              	.LVL21:
 300              	.L21:
 108:Core/Src/main.c **** 
 301              		.loc 1 108 1 view .LVU50
 302 000a 08BD     		pop	{r3, pc}
 303              	.LVL22:
 304              	.L24:
 106:Core/Src/main.c ****   }
 305              		.loc 1 106 5 is_stmt 1 view .LVU51
 106:Core/Src/main.c ****   }
 306              		.loc 1 106 18 is_stmt 0 view .LVU52
 307 000c 0348     		ldr	r0, .L25+4
 308              	.LVL23:
 106:Core/Src/main.c ****   }
 309              		.loc 1 106 18 view .LVU53
 310 000e FFF7FEFF 		bl	HAL_ADC_GetValue
 311              	.LVL24:
 106:Core/Src/main.c ****   }
 312              		.loc 1 106 16 view .LVU54
 313 0012 034B     		ldr	r3, .L25+8
 314 0014 1880     		strh	r0, [r3]	@ movhi
 108:Core/Src/main.c **** 
 315              		.loc 1 108 1 view .LVU55
 316 0016 F8E7     		b	.L21
 317              	.L26:
 318              		.align	2
 319              	.L25:
 320 0018 00240140 		.word	1073816576
 321 001c 00000000 		.word	.LANCHOR1
 322 0020 00000000 		.word	.LANCHOR4
 323              		.cfi_endproc
 324              	.LFE72:
 326              		.section	.text.HAL_TIM_PeriodElapsedCallback,"ax",%progbits
 327              		.align	1
ARM GAS  C:\Users\DELLPR~1\AppData\Local\Temp\ccYIRYeN.s 			page 15


 328              		.global	HAL_TIM_PeriodElapsedCallback
 329              		.syntax unified
 330              		.thumb
 331              		.thumb_func
 333              	HAL_TIM_PeriodElapsedCallback:
 334              	.LVL25:
 335              	.LFB83:
 456:Core/Src/main.c ****   }
 457:Core/Src/main.c ****   /* USER CODE END StartRFID_Task */
 458:Core/Src/main.c **** }
 459:Core/Src/main.c **** 
 460:Core/Src/main.c **** /**
 461:Core/Src/main.c ****   * @brief  Period elapsed callback in non blocking mode
 462:Core/Src/main.c ****   * @note   This function is called  when TIM1 interrupt took place, inside
 463:Core/Src/main.c ****   * HAL_TIM_IRQHandler(). It makes a direct call to HAL_IncTick() to increment
 464:Core/Src/main.c ****   * a global variable "uwTick" used as application time base.
 465:Core/Src/main.c ****   * @param  htim : TIM handle
 466:Core/Src/main.c ****   * @retval None
 467:Core/Src/main.c ****   */
 468:Core/Src/main.c **** void HAL_TIM_PeriodElapsedCallback(TIM_HandleTypeDef *htim)
 469:Core/Src/main.c **** {
 336              		.loc 1 469 1 is_stmt 1 view -0
 337              		.cfi_startproc
 338              		@ args = 0, pretend = 0, frame = 0
 339              		@ frame_needed = 0, uses_anonymous_args = 0
 340              		.loc 1 469 1 is_stmt 0 view .LVU57
 341 0000 08B5     		push	{r3, lr}
 342              	.LCFI9:
 343              		.cfi_def_cfa_offset 8
 344              		.cfi_offset 3, -8
 345              		.cfi_offset 14, -4
 470:Core/Src/main.c ****   /* USER CODE BEGIN Callback 0 */
 471:Core/Src/main.c **** 
 472:Core/Src/main.c ****   /* USER CODE END Callback 0 */
 473:Core/Src/main.c ****   if (htim->Instance == TIM1) {
 346              		.loc 1 473 3 is_stmt 1 view .LVU58
 347              		.loc 1 473 11 is_stmt 0 view .LVU59
 348 0002 0268     		ldr	r2, [r0]
 349              		.loc 1 473 6 view .LVU60
 350 0004 034B     		ldr	r3, .L31
 351 0006 9A42     		cmp	r2, r3
 352 0008 00D0     		beq	.L30
 353              	.LVL26:
 354              	.L27:
 474:Core/Src/main.c ****     HAL_IncTick();
 475:Core/Src/main.c ****   }
 476:Core/Src/main.c ****   /* USER CODE BEGIN Callback 1 */
 477:Core/Src/main.c **** 
 478:Core/Src/main.c ****   /* USER CODE END Callback 1 */
 479:Core/Src/main.c **** }
 355              		.loc 1 479 1 view .LVU61
 356 000a 08BD     		pop	{r3, pc}
 357              	.LVL27:
 358              	.L30:
 474:Core/Src/main.c ****     HAL_IncTick();
 359              		.loc 1 474 5 is_stmt 1 view .LVU62
 360 000c FFF7FEFF 		bl	HAL_IncTick
ARM GAS  C:\Users\DELLPR~1\AppData\Local\Temp\ccYIRYeN.s 			page 16


 361              	.LVL28:
 362              		.loc 1 479 1 is_stmt 0 view .LVU63
 363 0010 FBE7     		b	.L27
 364              	.L32:
 365 0012 00BF     		.align	2
 366              	.L31:
 367 0014 002C0140 		.word	1073818624
 368              		.cfi_endproc
 369              	.LFE83:
 371              		.section	.text.Error_Handler,"ax",%progbits
 372              		.align	1
 373              		.global	Error_Handler
 374              		.syntax unified
 375              		.thumb
 376              		.thumb_func
 378              	Error_Handler:
 379              	.LFB84:
 480:Core/Src/main.c **** 
 481:Core/Src/main.c **** /**
 482:Core/Src/main.c ****   * @brief  This function is executed in case of error occurrence.
 483:Core/Src/main.c ****   * @retval None
 484:Core/Src/main.c ****   */
 485:Core/Src/main.c **** void Error_Handler(void)
 486:Core/Src/main.c **** {
 380              		.loc 1 486 1 is_stmt 1 view -0
 381              		.cfi_startproc
 382              		@ Volatile: function does not return.
 383              		@ args = 0, pretend = 0, frame = 0
 384              		@ frame_needed = 0, uses_anonymous_args = 0
 385              		@ link register save eliminated.
 487:Core/Src/main.c ****   /* USER CODE BEGIN Error_Handler_Debug */
 488:Core/Src/main.c ****   /* User can add his own implementation to report the HAL error return state */
 489:Core/Src/main.c ****   __disable_irq();
 386              		.loc 1 489 3 view .LVU65
 387              	.LBB5:
 388              	.LBI5:
 389              		.file 2 "Drivers/CMSIS/Include/cmsis_gcc.h"
   1:Drivers/CMSIS/Include/cmsis_gcc.h **** /**************************************************************************//**
   2:Drivers/CMSIS/Include/cmsis_gcc.h ****  * @file     cmsis_gcc.h
   3:Drivers/CMSIS/Include/cmsis_gcc.h ****  * @brief    CMSIS compiler GCC header file
   4:Drivers/CMSIS/Include/cmsis_gcc.h ****  * @version  V5.0.4
   5:Drivers/CMSIS/Include/cmsis_gcc.h ****  * @date     09. April 2018
   6:Drivers/CMSIS/Include/cmsis_gcc.h ****  ******************************************************************************/
   7:Drivers/CMSIS/Include/cmsis_gcc.h **** /*
   8:Drivers/CMSIS/Include/cmsis_gcc.h ****  * Copyright (c) 2009-2018 Arm Limited. All rights reserved.
   9:Drivers/CMSIS/Include/cmsis_gcc.h ****  *
  10:Drivers/CMSIS/Include/cmsis_gcc.h ****  * SPDX-License-Identifier: Apache-2.0
  11:Drivers/CMSIS/Include/cmsis_gcc.h ****  *
  12:Drivers/CMSIS/Include/cmsis_gcc.h ****  * Licensed under the Apache License, Version 2.0 (the License); you may
  13:Drivers/CMSIS/Include/cmsis_gcc.h ****  * not use this file except in compliance with the License.
  14:Drivers/CMSIS/Include/cmsis_gcc.h ****  * You may obtain a copy of the License at
  15:Drivers/CMSIS/Include/cmsis_gcc.h ****  *
  16:Drivers/CMSIS/Include/cmsis_gcc.h ****  * www.apache.org/licenses/LICENSE-2.0
  17:Drivers/CMSIS/Include/cmsis_gcc.h ****  *
  18:Drivers/CMSIS/Include/cmsis_gcc.h ****  * Unless required by applicable law or agreed to in writing, software
  19:Drivers/CMSIS/Include/cmsis_gcc.h ****  * distributed under the License is distributed on an AS IS BASIS, WITHOUT
  20:Drivers/CMSIS/Include/cmsis_gcc.h ****  * WARRANTIES OR CONDITIONS OF ANY KIND, either express or implied.
ARM GAS  C:\Users\DELLPR~1\AppData\Local\Temp\ccYIRYeN.s 			page 17


  21:Drivers/CMSIS/Include/cmsis_gcc.h ****  * See the License for the specific language governing permissions and
  22:Drivers/CMSIS/Include/cmsis_gcc.h ****  * limitations under the License.
  23:Drivers/CMSIS/Include/cmsis_gcc.h ****  */
  24:Drivers/CMSIS/Include/cmsis_gcc.h **** 
  25:Drivers/CMSIS/Include/cmsis_gcc.h **** #ifndef __CMSIS_GCC_H
  26:Drivers/CMSIS/Include/cmsis_gcc.h **** #define __CMSIS_GCC_H
  27:Drivers/CMSIS/Include/cmsis_gcc.h **** 
  28:Drivers/CMSIS/Include/cmsis_gcc.h **** /* ignore some GCC warnings */
  29:Drivers/CMSIS/Include/cmsis_gcc.h **** #pragma GCC diagnostic push
  30:Drivers/CMSIS/Include/cmsis_gcc.h **** #pragma GCC diagnostic ignored "-Wsign-conversion"
  31:Drivers/CMSIS/Include/cmsis_gcc.h **** #pragma GCC diagnostic ignored "-Wconversion"
  32:Drivers/CMSIS/Include/cmsis_gcc.h **** #pragma GCC diagnostic ignored "-Wunused-parameter"
  33:Drivers/CMSIS/Include/cmsis_gcc.h **** 
  34:Drivers/CMSIS/Include/cmsis_gcc.h **** /* Fallback for __has_builtin */
  35:Drivers/CMSIS/Include/cmsis_gcc.h **** #ifndef __has_builtin
  36:Drivers/CMSIS/Include/cmsis_gcc.h ****   #define __has_builtin(x) (0)
  37:Drivers/CMSIS/Include/cmsis_gcc.h **** #endif
  38:Drivers/CMSIS/Include/cmsis_gcc.h **** 
  39:Drivers/CMSIS/Include/cmsis_gcc.h **** /* CMSIS compiler specific defines */
  40:Drivers/CMSIS/Include/cmsis_gcc.h **** #ifndef   __ASM
  41:Drivers/CMSIS/Include/cmsis_gcc.h ****   #define __ASM                                  __asm
  42:Drivers/CMSIS/Include/cmsis_gcc.h **** #endif
  43:Drivers/CMSIS/Include/cmsis_gcc.h **** #ifndef   __INLINE
  44:Drivers/CMSIS/Include/cmsis_gcc.h ****   #define __INLINE                               inline
  45:Drivers/CMSIS/Include/cmsis_gcc.h **** #endif
  46:Drivers/CMSIS/Include/cmsis_gcc.h **** #ifndef   __STATIC_INLINE
  47:Drivers/CMSIS/Include/cmsis_gcc.h ****   #define __STATIC_INLINE                        static inline
  48:Drivers/CMSIS/Include/cmsis_gcc.h **** #endif
  49:Drivers/CMSIS/Include/cmsis_gcc.h **** #ifndef   __STATIC_FORCEINLINE                 
  50:Drivers/CMSIS/Include/cmsis_gcc.h ****   #define __STATIC_FORCEINLINE                   __attribute__((always_inline)) static inline
  51:Drivers/CMSIS/Include/cmsis_gcc.h **** #endif                                           
  52:Drivers/CMSIS/Include/cmsis_gcc.h **** #ifndef   __NO_RETURN
  53:Drivers/CMSIS/Include/cmsis_gcc.h ****   #define __NO_RETURN                            __attribute__((__noreturn__))
  54:Drivers/CMSIS/Include/cmsis_gcc.h **** #endif
  55:Drivers/CMSIS/Include/cmsis_gcc.h **** #ifndef   __USED
  56:Drivers/CMSIS/Include/cmsis_gcc.h ****   #define __USED                                 __attribute__((used))
  57:Drivers/CMSIS/Include/cmsis_gcc.h **** #endif
  58:Drivers/CMSIS/Include/cmsis_gcc.h **** #ifndef   __WEAK
  59:Drivers/CMSIS/Include/cmsis_gcc.h ****   #define __WEAK                                 __attribute__((weak))
  60:Drivers/CMSIS/Include/cmsis_gcc.h **** #endif
  61:Drivers/CMSIS/Include/cmsis_gcc.h **** #ifndef   __PACKED
  62:Drivers/CMSIS/Include/cmsis_gcc.h ****   #define __PACKED                               __attribute__((packed, aligned(1)))
  63:Drivers/CMSIS/Include/cmsis_gcc.h **** #endif
  64:Drivers/CMSIS/Include/cmsis_gcc.h **** #ifndef   __PACKED_STRUCT
  65:Drivers/CMSIS/Include/cmsis_gcc.h ****   #define __PACKED_STRUCT                        struct __attribute__((packed, aligned(1)))
  66:Drivers/CMSIS/Include/cmsis_gcc.h **** #endif
  67:Drivers/CMSIS/Include/cmsis_gcc.h **** #ifndef   __PACKED_UNION
  68:Drivers/CMSIS/Include/cmsis_gcc.h ****   #define __PACKED_UNION                         union __attribute__((packed, aligned(1)))
  69:Drivers/CMSIS/Include/cmsis_gcc.h **** #endif
  70:Drivers/CMSIS/Include/cmsis_gcc.h **** #ifndef   __UNALIGNED_UINT32        /* deprecated */
  71:Drivers/CMSIS/Include/cmsis_gcc.h ****   #pragma GCC diagnostic push
  72:Drivers/CMSIS/Include/cmsis_gcc.h ****   #pragma GCC diagnostic ignored "-Wpacked"
  73:Drivers/CMSIS/Include/cmsis_gcc.h ****   #pragma GCC diagnostic ignored "-Wattributes"
  74:Drivers/CMSIS/Include/cmsis_gcc.h ****   struct __attribute__((packed)) T_UINT32 { uint32_t v; };
  75:Drivers/CMSIS/Include/cmsis_gcc.h ****   #pragma GCC diagnostic pop
  76:Drivers/CMSIS/Include/cmsis_gcc.h ****   #define __UNALIGNED_UINT32(x)                  (((struct T_UINT32 *)(x))->v)
  77:Drivers/CMSIS/Include/cmsis_gcc.h **** #endif
ARM GAS  C:\Users\DELLPR~1\AppData\Local\Temp\ccYIRYeN.s 			page 18


  78:Drivers/CMSIS/Include/cmsis_gcc.h **** #ifndef   __UNALIGNED_UINT16_WRITE
  79:Drivers/CMSIS/Include/cmsis_gcc.h ****   #pragma GCC diagnostic push
  80:Drivers/CMSIS/Include/cmsis_gcc.h ****   #pragma GCC diagnostic ignored "-Wpacked"
  81:Drivers/CMSIS/Include/cmsis_gcc.h ****   #pragma GCC diagnostic ignored "-Wattributes"
  82:Drivers/CMSIS/Include/cmsis_gcc.h ****   __PACKED_STRUCT T_UINT16_WRITE { uint16_t v; };
  83:Drivers/CMSIS/Include/cmsis_gcc.h ****   #pragma GCC diagnostic pop
  84:Drivers/CMSIS/Include/cmsis_gcc.h ****   #define __UNALIGNED_UINT16_WRITE(addr, val)    (void)((((struct T_UINT16_WRITE *)(void *)(addr))-
  85:Drivers/CMSIS/Include/cmsis_gcc.h **** #endif
  86:Drivers/CMSIS/Include/cmsis_gcc.h **** #ifndef   __UNALIGNED_UINT16_READ
  87:Drivers/CMSIS/Include/cmsis_gcc.h ****   #pragma GCC diagnostic push
  88:Drivers/CMSIS/Include/cmsis_gcc.h ****   #pragma GCC diagnostic ignored "-Wpacked"
  89:Drivers/CMSIS/Include/cmsis_gcc.h ****   #pragma GCC diagnostic ignored "-Wattributes"
  90:Drivers/CMSIS/Include/cmsis_gcc.h ****   __PACKED_STRUCT T_UINT16_READ { uint16_t v; };
  91:Drivers/CMSIS/Include/cmsis_gcc.h ****   #pragma GCC diagnostic pop
  92:Drivers/CMSIS/Include/cmsis_gcc.h ****   #define __UNALIGNED_UINT16_READ(addr)          (((const struct T_UINT16_READ *)(const void *)(add
  93:Drivers/CMSIS/Include/cmsis_gcc.h **** #endif
  94:Drivers/CMSIS/Include/cmsis_gcc.h **** #ifndef   __UNALIGNED_UINT32_WRITE
  95:Drivers/CMSIS/Include/cmsis_gcc.h ****   #pragma GCC diagnostic push
  96:Drivers/CMSIS/Include/cmsis_gcc.h ****   #pragma GCC diagnostic ignored "-Wpacked"
  97:Drivers/CMSIS/Include/cmsis_gcc.h ****   #pragma GCC diagnostic ignored "-Wattributes"
  98:Drivers/CMSIS/Include/cmsis_gcc.h ****   __PACKED_STRUCT T_UINT32_WRITE { uint32_t v; };
  99:Drivers/CMSIS/Include/cmsis_gcc.h ****   #pragma GCC diagnostic pop
 100:Drivers/CMSIS/Include/cmsis_gcc.h ****   #define __UNALIGNED_UINT32_WRITE(addr, val)    (void)((((struct T_UINT32_WRITE *)(void *)(addr))-
 101:Drivers/CMSIS/Include/cmsis_gcc.h **** #endif
 102:Drivers/CMSIS/Include/cmsis_gcc.h **** #ifndef   __UNALIGNED_UINT32_READ
 103:Drivers/CMSIS/Include/cmsis_gcc.h ****   #pragma GCC diagnostic push
 104:Drivers/CMSIS/Include/cmsis_gcc.h ****   #pragma GCC diagnostic ignored "-Wpacked"
 105:Drivers/CMSIS/Include/cmsis_gcc.h ****   #pragma GCC diagnostic ignored "-Wattributes"
 106:Drivers/CMSIS/Include/cmsis_gcc.h ****   __PACKED_STRUCT T_UINT32_READ { uint32_t v; };
 107:Drivers/CMSIS/Include/cmsis_gcc.h ****   #pragma GCC diagnostic pop
 108:Drivers/CMSIS/Include/cmsis_gcc.h ****   #define __UNALIGNED_UINT32_READ(addr)          (((const struct T_UINT32_READ *)(const void *)(add
 109:Drivers/CMSIS/Include/cmsis_gcc.h **** #endif
 110:Drivers/CMSIS/Include/cmsis_gcc.h **** #ifndef   __ALIGNED
 111:Drivers/CMSIS/Include/cmsis_gcc.h ****   #define __ALIGNED(x)                           __attribute__((aligned(x)))
 112:Drivers/CMSIS/Include/cmsis_gcc.h **** #endif
 113:Drivers/CMSIS/Include/cmsis_gcc.h **** #ifndef   __RESTRICT
 114:Drivers/CMSIS/Include/cmsis_gcc.h ****   #define __RESTRICT                             __restrict
 115:Drivers/CMSIS/Include/cmsis_gcc.h **** #endif
 116:Drivers/CMSIS/Include/cmsis_gcc.h **** 
 117:Drivers/CMSIS/Include/cmsis_gcc.h **** 
 118:Drivers/CMSIS/Include/cmsis_gcc.h **** /* ###########################  Core Function Access  ########################### */
 119:Drivers/CMSIS/Include/cmsis_gcc.h **** /** \ingroup  CMSIS_Core_FunctionInterface
 120:Drivers/CMSIS/Include/cmsis_gcc.h ****     \defgroup CMSIS_Core_RegAccFunctions CMSIS Core Register Access Functions
 121:Drivers/CMSIS/Include/cmsis_gcc.h ****   @{
 122:Drivers/CMSIS/Include/cmsis_gcc.h ****  */
 123:Drivers/CMSIS/Include/cmsis_gcc.h **** 
 124:Drivers/CMSIS/Include/cmsis_gcc.h **** /**
 125:Drivers/CMSIS/Include/cmsis_gcc.h ****   \brief   Enable IRQ Interrupts
 126:Drivers/CMSIS/Include/cmsis_gcc.h ****   \details Enables IRQ interrupts by clearing the I-bit in the CPSR.
 127:Drivers/CMSIS/Include/cmsis_gcc.h ****            Can only be executed in Privileged modes.
 128:Drivers/CMSIS/Include/cmsis_gcc.h ****  */
 129:Drivers/CMSIS/Include/cmsis_gcc.h **** __STATIC_FORCEINLINE void __enable_irq(void)
 130:Drivers/CMSIS/Include/cmsis_gcc.h **** {
 131:Drivers/CMSIS/Include/cmsis_gcc.h ****   __ASM volatile ("cpsie i" : : : "memory");
 132:Drivers/CMSIS/Include/cmsis_gcc.h **** }
 133:Drivers/CMSIS/Include/cmsis_gcc.h **** 
 134:Drivers/CMSIS/Include/cmsis_gcc.h **** 
ARM GAS  C:\Users\DELLPR~1\AppData\Local\Temp\ccYIRYeN.s 			page 19


 135:Drivers/CMSIS/Include/cmsis_gcc.h **** /**
 136:Drivers/CMSIS/Include/cmsis_gcc.h ****   \brief   Disable IRQ Interrupts
 137:Drivers/CMSIS/Include/cmsis_gcc.h ****   \details Disables IRQ interrupts by setting the I-bit in the CPSR.
 138:Drivers/CMSIS/Include/cmsis_gcc.h ****            Can only be executed in Privileged modes.
 139:Drivers/CMSIS/Include/cmsis_gcc.h ****  */
 140:Drivers/CMSIS/Include/cmsis_gcc.h **** __STATIC_FORCEINLINE void __disable_irq(void)
 390              		.loc 2 140 27 view .LVU66
 391              	.LBB6:
 141:Drivers/CMSIS/Include/cmsis_gcc.h **** {
 142:Drivers/CMSIS/Include/cmsis_gcc.h ****   __ASM volatile ("cpsid i" : : : "memory");
 392              		.loc 2 142 3 view .LVU67
 393              		.syntax unified
 394              	@ 142 "Drivers/CMSIS/Include/cmsis_gcc.h" 1
 395 0000 72B6     		cpsid i
 396              	@ 0 "" 2
 397              		.thumb
 398              		.syntax unified
 399              	.L34:
 400              	.LBE6:
 401              	.LBE5:
 490:Core/Src/main.c ****   while (1)
 402              		.loc 1 490 3 discriminator 1 view .LVU68
 491:Core/Src/main.c ****   {
 492:Core/Src/main.c ****   }
 403              		.loc 1 492 3 discriminator 1 view .LVU69
 490:Core/Src/main.c ****   while (1)
 404              		.loc 1 490 9 discriminator 1 view .LVU70
 405 0002 FEE7     		b	.L34
 406              		.cfi_endproc
 407              	.LFE84:
 409              		.section	.text.MX_ADC1_Init,"ax",%progbits
 410              		.align	1
 411              		.syntax unified
 412              		.thumb
 413              		.thumb_func
 415              	MX_ADC1_Init:
 416              	.LFB75:
 249:Core/Src/main.c **** 
 417              		.loc 1 249 1 view -0
 418              		.cfi_startproc
 419              		@ args = 0, pretend = 0, frame = 16
 420              		@ frame_needed = 0, uses_anonymous_args = 0
 421 0000 00B5     		push	{lr}
 422              	.LCFI10:
 423              		.cfi_def_cfa_offset 4
 424              		.cfi_offset 14, -4
 425 0002 85B0     		sub	sp, sp, #20
 426              	.LCFI11:
 427              		.cfi_def_cfa_offset 24
 255:Core/Src/main.c **** 
 428              		.loc 1 255 3 view .LVU72
 255:Core/Src/main.c **** 
 429              		.loc 1 255 26 is_stmt 0 view .LVU73
 430 0004 0023     		movs	r3, #0
 431 0006 0193     		str	r3, [sp, #4]
 432 0008 0293     		str	r3, [sp, #8]
 433 000a 0393     		str	r3, [sp, #12]
ARM GAS  C:\Users\DELLPR~1\AppData\Local\Temp\ccYIRYeN.s 			page 20


 262:Core/Src/main.c ****   hadc1.Init.ScanConvMode = ADC_SCAN_DISABLE;
 434              		.loc 1 262 3 is_stmt 1 view .LVU74
 262:Core/Src/main.c ****   hadc1.Init.ScanConvMode = ADC_SCAN_DISABLE;
 435              		.loc 1 262 18 is_stmt 0 view .LVU75
 436 000c 0F48     		ldr	r0, .L41
 437 000e 104A     		ldr	r2, .L41+4
 438 0010 0260     		str	r2, [r0]
 263:Core/Src/main.c ****   hadc1.Init.ContinuousConvMode = DISABLE;
 439              		.loc 1 263 3 is_stmt 1 view .LVU76
 263:Core/Src/main.c ****   hadc1.Init.ContinuousConvMode = DISABLE;
 440              		.loc 1 263 27 is_stmt 0 view .LVU77
 441 0012 8360     		str	r3, [r0, #8]
 264:Core/Src/main.c ****   hadc1.Init.DiscontinuousConvMode = DISABLE;
 442              		.loc 1 264 3 is_stmt 1 view .LVU78
 264:Core/Src/main.c ****   hadc1.Init.DiscontinuousConvMode = DISABLE;
 443              		.loc 1 264 33 is_stmt 0 view .LVU79
 444 0014 0373     		strb	r3, [r0, #12]
 265:Core/Src/main.c ****   hadc1.Init.ExternalTrigConv = ADC_SOFTWARE_START;
 445              		.loc 1 265 3 is_stmt 1 view .LVU80
 265:Core/Src/main.c ****   hadc1.Init.ExternalTrigConv = ADC_SOFTWARE_START;
 446              		.loc 1 265 36 is_stmt 0 view .LVU81
 447 0016 0375     		strb	r3, [r0, #20]
 266:Core/Src/main.c ****   hadc1.Init.DataAlign = ADC_DATAALIGN_RIGHT;
 448              		.loc 1 266 3 is_stmt 1 view .LVU82
 266:Core/Src/main.c ****   hadc1.Init.DataAlign = ADC_DATAALIGN_RIGHT;
 449              		.loc 1 266 31 is_stmt 0 view .LVU83
 450 0018 4FF46022 		mov	r2, #917504
 451 001c C261     		str	r2, [r0, #28]
 267:Core/Src/main.c ****   hadc1.Init.NbrOfConversion = 1;
 452              		.loc 1 267 3 is_stmt 1 view .LVU84
 267:Core/Src/main.c ****   hadc1.Init.NbrOfConversion = 1;
 453              		.loc 1 267 24 is_stmt 0 view .LVU85
 454 001e 4360     		str	r3, [r0, #4]
 268:Core/Src/main.c ****   if (HAL_ADC_Init(&hadc1) != HAL_OK)
 455              		.loc 1 268 3 is_stmt 1 view .LVU86
 268:Core/Src/main.c ****   if (HAL_ADC_Init(&hadc1) != HAL_OK)
 456              		.loc 1 268 30 is_stmt 0 view .LVU87
 457 0020 0123     		movs	r3, #1
 458 0022 0361     		str	r3, [r0, #16]
 269:Core/Src/main.c ****   {
 459              		.loc 1 269 3 is_stmt 1 view .LVU88
 269:Core/Src/main.c ****   {
 460              		.loc 1 269 7 is_stmt 0 view .LVU89
 461 0024 FFF7FEFF 		bl	HAL_ADC_Init
 462              	.LVL29:
 269:Core/Src/main.c ****   {
 463              		.loc 1 269 6 view .LVU90
 464 0028 60B9     		cbnz	r0, .L39
 275:Core/Src/main.c ****   sConfig.Rank = ADC_REGULAR_RANK_1;
 465              		.loc 1 275 3 is_stmt 1 view .LVU91
 275:Core/Src/main.c ****   sConfig.Rank = ADC_REGULAR_RANK_1;
 466              		.loc 1 275 19 is_stmt 0 view .LVU92
 467 002a 0023     		movs	r3, #0
 468 002c 0193     		str	r3, [sp, #4]
 276:Core/Src/main.c ****   sConfig.SamplingTime = ADC_SAMPLETIME_1CYCLE_5;
 469              		.loc 1 276 3 is_stmt 1 view .LVU93
 276:Core/Src/main.c ****   sConfig.SamplingTime = ADC_SAMPLETIME_1CYCLE_5;
ARM GAS  C:\Users\DELLPR~1\AppData\Local\Temp\ccYIRYeN.s 			page 21


 470              		.loc 1 276 16 is_stmt 0 view .LVU94
 471 002e 0122     		movs	r2, #1
 472 0030 0292     		str	r2, [sp, #8]
 277:Core/Src/main.c ****   if (HAL_ADC_ConfigChannel(&hadc1, &sConfig) != HAL_OK)
 473              		.loc 1 277 3 is_stmt 1 view .LVU95
 277:Core/Src/main.c ****   if (HAL_ADC_ConfigChannel(&hadc1, &sConfig) != HAL_OK)
 474              		.loc 1 277 24 is_stmt 0 view .LVU96
 475 0032 0393     		str	r3, [sp, #12]
 278:Core/Src/main.c ****   {
 476              		.loc 1 278 3 is_stmt 1 view .LVU97
 278:Core/Src/main.c ****   {
 477              		.loc 1 278 7 is_stmt 0 view .LVU98
 478 0034 01A9     		add	r1, sp, #4
 479 0036 0548     		ldr	r0, .L41
 480 0038 FFF7FEFF 		bl	HAL_ADC_ConfigChannel
 481              	.LVL30:
 278:Core/Src/main.c ****   {
 482              		.loc 1 278 6 view .LVU99
 483 003c 20B9     		cbnz	r0, .L40
 286:Core/Src/main.c **** 
 484              		.loc 1 286 1 view .LVU100
 485 003e 05B0     		add	sp, sp, #20
 486              	.LCFI12:
 487              		.cfi_remember_state
 488              		.cfi_def_cfa_offset 4
 489              		@ sp needed
 490 0040 5DF804FB 		ldr	pc, [sp], #4
 491              	.L39:
 492              	.LCFI13:
 493              		.cfi_restore_state
 271:Core/Src/main.c ****   }
 494              		.loc 1 271 5 is_stmt 1 view .LVU101
 495 0044 FFF7FEFF 		bl	Error_Handler
 496              	.LVL31:
 497              	.L40:
 280:Core/Src/main.c ****   }
 498              		.loc 1 280 5 view .LVU102
 499 0048 FFF7FEFF 		bl	Error_Handler
 500              	.LVL32:
 501              	.L42:
 502              		.align	2
 503              	.L41:
 504 004c 00000000 		.word	.LANCHOR1
 505 0050 00240140 		.word	1073816576
 506              		.cfi_endproc
 507              	.LFE75:
 509              		.section	.text.MX_SPI1_Init,"ax",%progbits
 510              		.align	1
 511              		.syntax unified
 512              		.thumb
 513              		.thumb_func
 515              	MX_SPI1_Init:
 516              	.LFB76:
 294:Core/Src/main.c **** 
 517              		.loc 1 294 1 view -0
 518              		.cfi_startproc
 519              		@ args = 0, pretend = 0, frame = 0
ARM GAS  C:\Users\DELLPR~1\AppData\Local\Temp\ccYIRYeN.s 			page 22


 520              		@ frame_needed = 0, uses_anonymous_args = 0
 521 0000 08B5     		push	{r3, lr}
 522              	.LCFI14:
 523              		.cfi_def_cfa_offset 8
 524              		.cfi_offset 3, -8
 525              		.cfi_offset 14, -4
 304:Core/Src/main.c ****   hspi1.Init.Mode = SPI_MODE_MASTER;
 526              		.loc 1 304 3 view .LVU104
 304:Core/Src/main.c ****   hspi1.Init.Mode = SPI_MODE_MASTER;
 527              		.loc 1 304 18 is_stmt 0 view .LVU105
 528 0002 0D48     		ldr	r0, .L47
 529 0004 0D4B     		ldr	r3, .L47+4
 530 0006 0360     		str	r3, [r0]
 305:Core/Src/main.c ****   hspi1.Init.Direction = SPI_DIRECTION_2LINES;
 531              		.loc 1 305 3 is_stmt 1 view .LVU106
 305:Core/Src/main.c ****   hspi1.Init.Direction = SPI_DIRECTION_2LINES;
 532              		.loc 1 305 19 is_stmt 0 view .LVU107
 533 0008 4FF48273 		mov	r3, #260
 534 000c 4360     		str	r3, [r0, #4]
 306:Core/Src/main.c ****   hspi1.Init.DataSize = SPI_DATASIZE_8BIT;
 535              		.loc 1 306 3 is_stmt 1 view .LVU108
 306:Core/Src/main.c ****   hspi1.Init.DataSize = SPI_DATASIZE_8BIT;
 536              		.loc 1 306 24 is_stmt 0 view .LVU109
 537 000e 0023     		movs	r3, #0
 538 0010 8360     		str	r3, [r0, #8]
 307:Core/Src/main.c ****   hspi1.Init.CLKPolarity = SPI_POLARITY_LOW;
 539              		.loc 1 307 3 is_stmt 1 view .LVU110
 307:Core/Src/main.c ****   hspi1.Init.CLKPolarity = SPI_POLARITY_LOW;
 540              		.loc 1 307 23 is_stmt 0 view .LVU111
 541 0012 C360     		str	r3, [r0, #12]
 308:Core/Src/main.c ****   hspi1.Init.CLKPhase = SPI_PHASE_1EDGE;
 542              		.loc 1 308 3 is_stmt 1 view .LVU112
 308:Core/Src/main.c ****   hspi1.Init.CLKPhase = SPI_PHASE_1EDGE;
 543              		.loc 1 308 26 is_stmt 0 view .LVU113
 544 0014 0361     		str	r3, [r0, #16]
 309:Core/Src/main.c ****   hspi1.Init.NSS = SPI_NSS_SOFT;
 545              		.loc 1 309 3 is_stmt 1 view .LVU114
 309:Core/Src/main.c ****   hspi1.Init.NSS = SPI_NSS_SOFT;
 546              		.loc 1 309 23 is_stmt 0 view .LVU115
 547 0016 4361     		str	r3, [r0, #20]
 310:Core/Src/main.c ****   hspi1.Init.BaudRatePrescaler = SPI_BAUDRATEPRESCALER_2;
 548              		.loc 1 310 3 is_stmt 1 view .LVU116
 310:Core/Src/main.c ****   hspi1.Init.BaudRatePrescaler = SPI_BAUDRATEPRESCALER_2;
 549              		.loc 1 310 18 is_stmt 0 view .LVU117
 550 0018 4FF40072 		mov	r2, #512
 551 001c 8261     		str	r2, [r0, #24]
 311:Core/Src/main.c ****   hspi1.Init.FirstBit = SPI_FIRSTBIT_MSB;
 552              		.loc 1 311 3 is_stmt 1 view .LVU118
 311:Core/Src/main.c ****   hspi1.Init.FirstBit = SPI_FIRSTBIT_MSB;
 553              		.loc 1 311 32 is_stmt 0 view .LVU119
 554 001e C361     		str	r3, [r0, #28]
 312:Core/Src/main.c ****   hspi1.Init.TIMode = SPI_TIMODE_DISABLE;
 555              		.loc 1 312 3 is_stmt 1 view .LVU120
 312:Core/Src/main.c ****   hspi1.Init.TIMode = SPI_TIMODE_DISABLE;
 556              		.loc 1 312 23 is_stmt 0 view .LVU121
 557 0020 0362     		str	r3, [r0, #32]
 313:Core/Src/main.c ****   hspi1.Init.CRCCalculation = SPI_CRCCALCULATION_DISABLE;
ARM GAS  C:\Users\DELLPR~1\AppData\Local\Temp\ccYIRYeN.s 			page 23


 558              		.loc 1 313 3 is_stmt 1 view .LVU122
 313:Core/Src/main.c ****   hspi1.Init.CRCCalculation = SPI_CRCCALCULATION_DISABLE;
 559              		.loc 1 313 21 is_stmt 0 view .LVU123
 560 0022 4362     		str	r3, [r0, #36]
 314:Core/Src/main.c ****   hspi1.Init.CRCPolynomial = 10;
 561              		.loc 1 314 3 is_stmt 1 view .LVU124
 314:Core/Src/main.c ****   hspi1.Init.CRCPolynomial = 10;
 562              		.loc 1 314 29 is_stmt 0 view .LVU125
 563 0024 8362     		str	r3, [r0, #40]
 315:Core/Src/main.c ****   if (HAL_SPI_Init(&hspi1) != HAL_OK)
 564              		.loc 1 315 3 is_stmt 1 view .LVU126
 315:Core/Src/main.c ****   if (HAL_SPI_Init(&hspi1) != HAL_OK)
 565              		.loc 1 315 28 is_stmt 0 view .LVU127
 566 0026 0A23     		movs	r3, #10
 567 0028 C362     		str	r3, [r0, #44]
 316:Core/Src/main.c ****   {
 568              		.loc 1 316 3 is_stmt 1 view .LVU128
 316:Core/Src/main.c ****   {
 569              		.loc 1 316 7 is_stmt 0 view .LVU129
 570 002a FFF7FEFF 		bl	HAL_SPI_Init
 571              	.LVL33:
 316:Core/Src/main.c ****   {
 572              		.loc 1 316 6 view .LVU130
 573 002e 00B9     		cbnz	r0, .L46
 324:Core/Src/main.c **** 
 574              		.loc 1 324 1 view .LVU131
 575 0030 08BD     		pop	{r3, pc}
 576              	.L46:
 318:Core/Src/main.c ****   }
 577              		.loc 1 318 5 is_stmt 1 view .LVU132
 578 0032 FFF7FEFF 		bl	Error_Handler
 579              	.LVL34:
 580              	.L48:
 581 0036 00BF     		.align	2
 582              	.L47:
 583 0038 00000000 		.word	.LANCHOR3
 584 003c 00300140 		.word	1073819648
 585              		.cfi_endproc
 586              	.LFE76:
 588              		.section	.text.MX_USART1_UART_Init,"ax",%progbits
 589              		.align	1
 590              		.syntax unified
 591              		.thumb
 592              		.thumb_func
 594              	MX_USART1_UART_Init:
 595              	.LFB77:
 332:Core/Src/main.c **** 
 596              		.loc 1 332 1 view -0
 597              		.cfi_startproc
 598              		@ args = 0, pretend = 0, frame = 0
 599              		@ frame_needed = 0, uses_anonymous_args = 0
 600 0000 08B5     		push	{r3, lr}
 601              	.LCFI15:
 602              		.cfi_def_cfa_offset 8
 603              		.cfi_offset 3, -8
 604              		.cfi_offset 14, -4
 341:Core/Src/main.c ****   huart1.Init.BaudRate = 115200;
ARM GAS  C:\Users\DELLPR~1\AppData\Local\Temp\ccYIRYeN.s 			page 24


 605              		.loc 1 341 3 view .LVU134
 341:Core/Src/main.c ****   huart1.Init.BaudRate = 115200;
 606              		.loc 1 341 19 is_stmt 0 view .LVU135
 607 0002 0A48     		ldr	r0, .L53
 608 0004 0A4B     		ldr	r3, .L53+4
 609 0006 0360     		str	r3, [r0]
 342:Core/Src/main.c ****   huart1.Init.WordLength = UART_WORDLENGTH_8B;
 610              		.loc 1 342 3 is_stmt 1 view .LVU136
 342:Core/Src/main.c ****   huart1.Init.WordLength = UART_WORDLENGTH_8B;
 611              		.loc 1 342 24 is_stmt 0 view .LVU137
 612 0008 4FF4E133 		mov	r3, #115200
 613 000c 4360     		str	r3, [r0, #4]
 343:Core/Src/main.c ****   huart1.Init.StopBits = UART_STOPBITS_1;
 614              		.loc 1 343 3 is_stmt 1 view .LVU138
 343:Core/Src/main.c ****   huart1.Init.StopBits = UART_STOPBITS_1;
 615              		.loc 1 343 26 is_stmt 0 view .LVU139
 616 000e 0023     		movs	r3, #0
 617 0010 8360     		str	r3, [r0, #8]
 344:Core/Src/main.c ****   huart1.Init.Parity = UART_PARITY_NONE;
 618              		.loc 1 344 3 is_stmt 1 view .LVU140
 344:Core/Src/main.c ****   huart1.Init.Parity = UART_PARITY_NONE;
 619              		.loc 1 344 24 is_stmt 0 view .LVU141
 620 0012 C360     		str	r3, [r0, #12]
 345:Core/Src/main.c ****   huart1.Init.Mode = UART_MODE_TX_RX;
 621              		.loc 1 345 3 is_stmt 1 view .LVU142
 345:Core/Src/main.c ****   huart1.Init.Mode = UART_MODE_TX_RX;
 622              		.loc 1 345 22 is_stmt 0 view .LVU143
 623 0014 0361     		str	r3, [r0, #16]
 346:Core/Src/main.c ****   huart1.Init.HwFlowCtl = UART_HWCONTROL_NONE;
 624              		.loc 1 346 3 is_stmt 1 view .LVU144
 346:Core/Src/main.c ****   huart1.Init.HwFlowCtl = UART_HWCONTROL_NONE;
 625              		.loc 1 346 20 is_stmt 0 view .LVU145
 626 0016 0C22     		movs	r2, #12
 627 0018 4261     		str	r2, [r0, #20]
 347:Core/Src/main.c ****   huart1.Init.OverSampling = UART_OVERSAMPLING_16;
 628              		.loc 1 347 3 is_stmt 1 view .LVU146
 347:Core/Src/main.c ****   huart1.Init.OverSampling = UART_OVERSAMPLING_16;
 629              		.loc 1 347 25 is_stmt 0 view .LVU147
 630 001a 8361     		str	r3, [r0, #24]
 348:Core/Src/main.c ****   if (HAL_UART_Init(&huart1) != HAL_OK)
 631              		.loc 1 348 3 is_stmt 1 view .LVU148
 348:Core/Src/main.c ****   if (HAL_UART_Init(&huart1) != HAL_OK)
 632              		.loc 1 348 28 is_stmt 0 view .LVU149
 633 001c C361     		str	r3, [r0, #28]
 349:Core/Src/main.c ****   {
 634              		.loc 1 349 3 is_stmt 1 view .LVU150
 349:Core/Src/main.c ****   {
 635              		.loc 1 349 7 is_stmt 0 view .LVU151
 636 001e FFF7FEFF 		bl	HAL_UART_Init
 637              	.LVL35:
 349:Core/Src/main.c ****   {
 638              		.loc 1 349 6 view .LVU152
 639 0022 00B9     		cbnz	r0, .L52
 357:Core/Src/main.c **** 
 640              		.loc 1 357 1 view .LVU153
 641 0024 08BD     		pop	{r3, pc}
 642              	.L52:
ARM GAS  C:\Users\DELLPR~1\AppData\Local\Temp\ccYIRYeN.s 			page 25


 351:Core/Src/main.c ****   }
 643              		.loc 1 351 5 is_stmt 1 view .LVU154
 644 0026 FFF7FEFF 		bl	Error_Handler
 645              	.LVL36:
 646              	.L54:
 647 002a 00BF     		.align	2
 648              	.L53:
 649 002c 00000000 		.word	.LANCHOR5
 650 0030 00380140 		.word	1073821696
 651              		.cfi_endproc
 652              	.LFE77:
 654              		.section	.text.SystemClock_Config,"ax",%progbits
 655              		.align	1
 656              		.global	SystemClock_Config
 657              		.syntax unified
 658              		.thumb
 659              		.thumb_func
 661              	SystemClock_Config:
 662              	.LFB74:
 206:Core/Src/main.c ****   RCC_OscInitTypeDef RCC_OscInitStruct = {0};
 663              		.loc 1 206 1 view -0
 664              		.cfi_startproc
 665              		@ args = 0, pretend = 0, frame = 80
 666              		@ frame_needed = 0, uses_anonymous_args = 0
 667 0000 00B5     		push	{lr}
 668              	.LCFI16:
 669              		.cfi_def_cfa_offset 4
 670              		.cfi_offset 14, -4
 671 0002 95B0     		sub	sp, sp, #84
 672              	.LCFI17:
 673              		.cfi_def_cfa_offset 88
 207:Core/Src/main.c ****   RCC_ClkInitTypeDef RCC_ClkInitStruct = {0};
 674              		.loc 1 207 3 view .LVU156
 207:Core/Src/main.c ****   RCC_ClkInitTypeDef RCC_ClkInitStruct = {0};
 675              		.loc 1 207 22 is_stmt 0 view .LVU157
 676 0004 2822     		movs	r2, #40
 677 0006 0021     		movs	r1, #0
 678 0008 0DEB0200 		add	r0, sp, r2
 679 000c FFF7FEFF 		bl	memset
 680              	.LVL37:
 208:Core/Src/main.c ****   RCC_PeriphCLKInitTypeDef PeriphClkInit = {0};
 681              		.loc 1 208 3 is_stmt 1 view .LVU158
 208:Core/Src/main.c ****   RCC_PeriphCLKInitTypeDef PeriphClkInit = {0};
 682              		.loc 1 208 22 is_stmt 0 view .LVU159
 683 0010 0023     		movs	r3, #0
 684 0012 0593     		str	r3, [sp, #20]
 685 0014 0693     		str	r3, [sp, #24]
 686 0016 0793     		str	r3, [sp, #28]
 687 0018 0893     		str	r3, [sp, #32]
 688 001a 0993     		str	r3, [sp, #36]
 209:Core/Src/main.c **** 
 689              		.loc 1 209 3 is_stmt 1 view .LVU160
 209:Core/Src/main.c **** 
 690              		.loc 1 209 28 is_stmt 0 view .LVU161
 691 001c 0193     		str	r3, [sp, #4]
 692 001e 0293     		str	r3, [sp, #8]
 693 0020 0393     		str	r3, [sp, #12]
ARM GAS  C:\Users\DELLPR~1\AppData\Local\Temp\ccYIRYeN.s 			page 26


 694 0022 0493     		str	r3, [sp, #16]
 214:Core/Src/main.c ****   RCC_OscInitStruct.HSIState = RCC_HSI_ON;
 695              		.loc 1 214 3 is_stmt 1 view .LVU162
 214:Core/Src/main.c ****   RCC_OscInitStruct.HSIState = RCC_HSI_ON;
 696              		.loc 1 214 36 is_stmt 0 view .LVU163
 697 0024 0223     		movs	r3, #2
 698 0026 0A93     		str	r3, [sp, #40]
 215:Core/Src/main.c ****   RCC_OscInitStruct.HSICalibrationValue = RCC_HSICALIBRATION_DEFAULT;
 699              		.loc 1 215 3 is_stmt 1 view .LVU164
 215:Core/Src/main.c ****   RCC_OscInitStruct.HSICalibrationValue = RCC_HSICALIBRATION_DEFAULT;
 700              		.loc 1 215 30 is_stmt 0 view .LVU165
 701 0028 0123     		movs	r3, #1
 702 002a 0E93     		str	r3, [sp, #56]
 216:Core/Src/main.c ****   RCC_OscInitStruct.PLL.PLLState = RCC_PLL_NONE;
 703              		.loc 1 216 3 is_stmt 1 view .LVU166
 216:Core/Src/main.c ****   RCC_OscInitStruct.PLL.PLLState = RCC_PLL_NONE;
 704              		.loc 1 216 41 is_stmt 0 view .LVU167
 705 002c 1023     		movs	r3, #16
 706 002e 0F93     		str	r3, [sp, #60]
 217:Core/Src/main.c ****   if (HAL_RCC_OscConfig(&RCC_OscInitStruct) != HAL_OK)
 707              		.loc 1 217 3 is_stmt 1 view .LVU168
 218:Core/Src/main.c ****   {
 708              		.loc 1 218 3 view .LVU169
 218:Core/Src/main.c ****   {
 709              		.loc 1 218 7 is_stmt 0 view .LVU170
 710 0030 0AA8     		add	r0, sp, #40
 711 0032 FFF7FEFF 		bl	HAL_RCC_OscConfig
 712              	.LVL38:
 218:Core/Src/main.c ****   {
 713              		.loc 1 218 6 view .LVU171
 714 0036 A8B9     		cbnz	r0, .L60
 224:Core/Src/main.c ****                               |RCC_CLOCKTYPE_PCLK1|RCC_CLOCKTYPE_PCLK2;
 715              		.loc 1 224 3 is_stmt 1 view .LVU172
 224:Core/Src/main.c ****                               |RCC_CLOCKTYPE_PCLK1|RCC_CLOCKTYPE_PCLK2;
 716              		.loc 1 224 31 is_stmt 0 view .LVU173
 717 0038 0F23     		movs	r3, #15
 718 003a 0593     		str	r3, [sp, #20]
 226:Core/Src/main.c ****   RCC_ClkInitStruct.AHBCLKDivider = RCC_SYSCLK_DIV1;
 719              		.loc 1 226 3 is_stmt 1 view .LVU174
 226:Core/Src/main.c ****   RCC_ClkInitStruct.AHBCLKDivider = RCC_SYSCLK_DIV1;
 720              		.loc 1 226 34 is_stmt 0 view .LVU175
 721 003c 0021     		movs	r1, #0
 722 003e 0691     		str	r1, [sp, #24]
 227:Core/Src/main.c ****   RCC_ClkInitStruct.APB1CLKDivider = RCC_HCLK_DIV1;
 723              		.loc 1 227 3 is_stmt 1 view .LVU176
 227:Core/Src/main.c ****   RCC_ClkInitStruct.APB1CLKDivider = RCC_HCLK_DIV1;
 724              		.loc 1 227 35 is_stmt 0 view .LVU177
 725 0040 0791     		str	r1, [sp, #28]
 228:Core/Src/main.c ****   RCC_ClkInitStruct.APB2CLKDivider = RCC_HCLK_DIV1;
 726              		.loc 1 228 3 is_stmt 1 view .LVU178
 228:Core/Src/main.c ****   RCC_ClkInitStruct.APB2CLKDivider = RCC_HCLK_DIV1;
 727              		.loc 1 228 36 is_stmt 0 view .LVU179
 728 0042 0891     		str	r1, [sp, #32]
 229:Core/Src/main.c **** 
 729              		.loc 1 229 3 is_stmt 1 view .LVU180
 229:Core/Src/main.c **** 
 730              		.loc 1 229 36 is_stmt 0 view .LVU181
ARM GAS  C:\Users\DELLPR~1\AppData\Local\Temp\ccYIRYeN.s 			page 27


 731 0044 0991     		str	r1, [sp, #36]
 231:Core/Src/main.c ****   {
 732              		.loc 1 231 3 is_stmt 1 view .LVU182
 231:Core/Src/main.c ****   {
 733              		.loc 1 231 7 is_stmt 0 view .LVU183
 734 0046 05A8     		add	r0, sp, #20
 735 0048 FFF7FEFF 		bl	HAL_RCC_ClockConfig
 736              	.LVL39:
 231:Core/Src/main.c ****   {
 737              		.loc 1 231 6 view .LVU184
 738 004c 60B9     		cbnz	r0, .L61
 235:Core/Src/main.c ****   PeriphClkInit.AdcClockSelection = RCC_ADCPCLK2_DIV2;
 739              		.loc 1 235 3 is_stmt 1 view .LVU185
 235:Core/Src/main.c ****   PeriphClkInit.AdcClockSelection = RCC_ADCPCLK2_DIV2;
 740              		.loc 1 235 38 is_stmt 0 view .LVU186
 741 004e 0223     		movs	r3, #2
 742 0050 0193     		str	r3, [sp, #4]
 236:Core/Src/main.c ****   if (HAL_RCCEx_PeriphCLKConfig(&PeriphClkInit) != HAL_OK)
 743              		.loc 1 236 3 is_stmt 1 view .LVU187
 236:Core/Src/main.c ****   if (HAL_RCCEx_PeriphCLKConfig(&PeriphClkInit) != HAL_OK)
 744              		.loc 1 236 35 is_stmt 0 view .LVU188
 745 0052 0023     		movs	r3, #0
 746 0054 0393     		str	r3, [sp, #12]
 237:Core/Src/main.c ****   {
 747              		.loc 1 237 3 is_stmt 1 view .LVU189
 237:Core/Src/main.c ****   {
 748              		.loc 1 237 7 is_stmt 0 view .LVU190
 749 0056 01A8     		add	r0, sp, #4
 750 0058 FFF7FEFF 		bl	HAL_RCCEx_PeriphCLKConfig
 751              	.LVL40:
 237:Core/Src/main.c ****   {
 752              		.loc 1 237 6 view .LVU191
 753 005c 30B9     		cbnz	r0, .L62
 241:Core/Src/main.c **** 
 754              		.loc 1 241 1 view .LVU192
 755 005e 15B0     		add	sp, sp, #84
 756              	.LCFI18:
 757              		.cfi_remember_state
 758              		.cfi_def_cfa_offset 4
 759              		@ sp needed
 760 0060 5DF804FB 		ldr	pc, [sp], #4
 761              	.L60:
 762              	.LCFI19:
 763              		.cfi_restore_state
 220:Core/Src/main.c ****   }
 764              		.loc 1 220 5 is_stmt 1 view .LVU193
 765 0064 FFF7FEFF 		bl	Error_Handler
 766              	.LVL41:
 767              	.L61:
 233:Core/Src/main.c ****   }
 768              		.loc 1 233 5 view .LVU194
 769 0068 FFF7FEFF 		bl	Error_Handler
 770              	.LVL42:
 771              	.L62:
 239:Core/Src/main.c ****   }
 772              		.loc 1 239 5 view .LVU195
 773 006c FFF7FEFF 		bl	Error_Handler
ARM GAS  C:\Users\DELLPR~1\AppData\Local\Temp\ccYIRYeN.s 			page 28


 774              	.LVL43:
 775              		.cfi_endproc
 776              	.LFE74:
 778              		.section	.text.main,"ax",%progbits
 779              		.align	1
 780              		.global	main
 781              		.syntax unified
 782              		.thumb
 783              		.thumb_func
 785              	main:
 786              	.LFB73:
 117:Core/Src/main.c ****   /* USER CODE BEGIN 1 */
 787              		.loc 1 117 1 view -0
 788              		.cfi_startproc
 789              		@ Volatile: function does not return.
 790              		@ args = 0, pretend = 0, frame = 0
 791              		@ frame_needed = 0, uses_anonymous_args = 0
 792 0000 08B5     		push	{r3, lr}
 793              	.LCFI20:
 794              		.cfi_def_cfa_offset 8
 795              		.cfi_offset 3, -8
 796              		.cfi_offset 14, -4
 124:Core/Src/main.c **** 
 797              		.loc 1 124 3 view .LVU197
 798 0002 FFF7FEFF 		bl	HAL_Init
 799              	.LVL44:
 131:Core/Src/main.c **** 
 800              		.loc 1 131 3 view .LVU198
 801 0006 FFF7FEFF 		bl	SystemClock_Config
 802              	.LVL45:
 138:Core/Src/main.c ****   MX_ADC1_Init();
 803              		.loc 1 138 3 view .LVU199
 804 000a FFF7FEFF 		bl	MX_GPIO_Init
 805              	.LVL46:
 139:Core/Src/main.c ****   MX_SPI1_Init();
 806              		.loc 1 139 3 view .LVU200
 807 000e FFF7FEFF 		bl	MX_ADC1_Init
 808              	.LVL47:
 140:Core/Src/main.c ****   MX_USART1_UART_Init();
 809              		.loc 1 140 3 view .LVU201
 810 0012 FFF7FEFF 		bl	MX_SPI1_Init
 811              	.LVL48:
 141:Core/Src/main.c ****   /* USER CODE BEGIN 2 */
 812              		.loc 1 141 3 view .LVU202
 813 0016 FFF7FEFF 		bl	MX_USART1_UART_Init
 814              	.LVL49:
 147:Core/Src/main.c **** 
 815              		.loc 1 147 3 view .LVU203
 816 001a FFF7FEFF 		bl	osKernelInitialize
 817              	.LVL50:
 167:Core/Src/main.c **** 
 818              		.loc 1 167 3 view .LVU204
 167:Core/Src/main.c **** 
 819              		.loc 1 167 23 is_stmt 0 view .LVU205
 820 001e 0F4A     		ldr	r2, .L66
 821 0020 0021     		movs	r1, #0
 822 0022 0F48     		ldr	r0, .L66+4
ARM GAS  C:\Users\DELLPR~1\AppData\Local\Temp\ccYIRYeN.s 			page 29


 823 0024 FFF7FEFF 		bl	osThreadNew
 824              	.LVL51:
 167:Core/Src/main.c **** 
 825              		.loc 1 167 21 view .LVU206
 826 0028 0E4B     		ldr	r3, .L66+8
 827 002a 1860     		str	r0, [r3]
 170:Core/Src/main.c **** 
 828              		.loc 1 170 3 is_stmt 1 view .LVU207
 170:Core/Src/main.c **** 
 829              		.loc 1 170 23 is_stmt 0 view .LVU208
 830 002c 0E4A     		ldr	r2, .L66+12
 831 002e 0021     		movs	r1, #0
 832 0030 0E48     		ldr	r0, .L66+16
 833 0032 FFF7FEFF 		bl	osThreadNew
 834              	.LVL52:
 170:Core/Src/main.c **** 
 835              		.loc 1 170 21 view .LVU209
 836 0036 0E4B     		ldr	r3, .L66+20
 837 0038 1860     		str	r0, [r3]
 173:Core/Src/main.c **** 
 838              		.loc 1 173 3 is_stmt 1 view .LVU210
 173:Core/Src/main.c **** 
 839              		.loc 1 173 21 is_stmt 0 view .LVU211
 840 003a 0E4A     		ldr	r2, .L66+24
 841 003c 0021     		movs	r1, #0
 842 003e 0E48     		ldr	r0, .L66+28
 843 0040 FFF7FEFF 		bl	osThreadNew
 844              	.LVL53:
 173:Core/Src/main.c **** 
 845              		.loc 1 173 19 view .LVU212
 846 0044 0D4B     		ldr	r3, .L66+32
 847 0046 1860     		str	r0, [r3]
 176:Core/Src/main.c **** 
 848              		.loc 1 176 3 is_stmt 1 view .LVU213
 176:Core/Src/main.c **** 
 849              		.loc 1 176 21 is_stmt 0 view .LVU214
 850 0048 0D4A     		ldr	r2, .L66+36
 851 004a 0021     		movs	r1, #0
 852 004c 0D48     		ldr	r0, .L66+40
 853 004e FFF7FEFF 		bl	osThreadNew
 854              	.LVL54:
 176:Core/Src/main.c **** 
 855              		.loc 1 176 19 view .LVU215
 856 0052 0D4B     		ldr	r3, .L66+44
 857 0054 1860     		str	r0, [r3]
 187:Core/Src/main.c **** 
 858              		.loc 1 187 3 is_stmt 1 view .LVU216
 859 0056 FFF7FEFF 		bl	osKernelStart
 860              	.LVL55:
 861              	.L64:
 192:Core/Src/main.c ****   {
 862              		.loc 1 192 3 discriminator 1 view .LVU217
 197:Core/Src/main.c ****   /* USER CODE END 3 */
 863              		.loc 1 197 3 discriminator 1 view .LVU218
 192:Core/Src/main.c ****   {
 864              		.loc 1 192 9 discriminator 1 view .LVU219
 865 005a FEE7     		b	.L64
ARM GAS  C:\Users\DELLPR~1\AppData\Local\Temp\ccYIRYeN.s 			page 30


 866              	.L67:
 867              		.align	2
 868              	.L66:
 869 005c 00000000 		.word	.LANCHOR6
 870 0060 00000000 		.word	StartDefaultTask
 871 0064 00000000 		.word	.LANCHOR7
 872 0068 00000000 		.word	.LANCHOR8
 873 006c 00000000 		.word	StartESacle_Task
 874 0070 00000000 		.word	.LANCHOR9
 875 0074 00000000 		.word	.LANCHOR10
 876 0078 00000000 		.word	StartUART_Task
 877 007c 00000000 		.word	.LANCHOR11
 878 0080 00000000 		.word	.LANCHOR12
 879 0084 00000000 		.word	StartRFID_Task
 880 0088 00000000 		.word	.LANCHOR13
 881              		.cfi_endproc
 882              	.LFE73:
 884              		.global	RFID_KEY
 885              		.global	UART_KEY
 886              		.global	ESCALE_KEY
 887              		.global	u16_ADCVal
 888              		.global	RFID_Task_attributes
 889              		.section	.rodata.str1.4,"aMS",%progbits,1
 890              		.align	2
 891              	.LC1:
 892 0000 52464944 		.ascii	"RFID_Task\000"
 892      5F546173 
 892      6B00
 893              		.global	RFID_TaskHandle
 894              		.global	UART_Task_attributes
 895 000a 0000     		.align	2
 896              	.LC2:
 897 000c 55415254 		.ascii	"UART_Task\000"
 897      5F546173 
 897      6B00
 898              		.global	UART_TaskHandle
 899              		.global	EScale_Task_attributes
 900 0016 0000     		.align	2
 901              	.LC3:
 902 0018 45536361 		.ascii	"EScale_Task\000"
 902      6C655F54 
 902      61736B00 
 903              		.global	EScale_TaskHandle
 904              		.global	defaultTask_attributes
 905              		.align	2
 906              	.LC4:
 907 0024 64656661 		.ascii	"defaultTask\000"
 907      756C7454 
 907      61736B00 
 908              		.global	defaultTaskHandle
 909              		.global	huart1
 910              		.global	hspi1
 911              		.global	hadc1
 912              		.section	.rodata
 913              		.align	2
 914              		.set	.LANCHOR2,. + 0
 915              	.LC0:
ARM GAS  C:\Users\DELLPR~1\AppData\Local\Temp\ccYIRYeN.s 			page 31


 916 0000 4D415354 		.ascii	"MASTER SEND\000"
 916      45522053 
 916      454E4400 
 917 000c 00000000 		.space	8
 917      00000000 
 918              		.section	.bss.ESCALE_KEY,"aw",%nobits
 919              		.align	2
 920              		.set	.LANCHOR0,. + 0
 923              	ESCALE_KEY:
 924 0000 00000000 		.space	4
 925              		.section	.bss.EScale_TaskHandle,"aw",%nobits
 926              		.align	2
 927              		.set	.LANCHOR9,. + 0
 930              	EScale_TaskHandle:
 931 0000 00000000 		.space	4
 932              		.section	.bss.RFID_KEY,"aw",%nobits
 933              		.align	2
 936              	RFID_KEY:
 937 0000 00000000 		.space	4
 938              		.section	.bss.RFID_TaskHandle,"aw",%nobits
 939              		.align	2
 940              		.set	.LANCHOR13,. + 0
 943              	RFID_TaskHandle:
 944 0000 00000000 		.space	4
 945              		.section	.bss.UART_KEY,"aw",%nobits
 946              		.align	2
 949              	UART_KEY:
 950 0000 00000000 		.space	4
 951              		.section	.bss.UART_TaskHandle,"aw",%nobits
 952              		.align	2
 953              		.set	.LANCHOR11,. + 0
 956              	UART_TaskHandle:
 957 0000 00000000 		.space	4
 958              		.section	.bss.defaultTaskHandle,"aw",%nobits
 959              		.align	2
 960              		.set	.LANCHOR7,. + 0
 963              	defaultTaskHandle:
 964 0000 00000000 		.space	4
 965              		.section	.bss.hadc1,"aw",%nobits
 966              		.align	2
 967              		.set	.LANCHOR1,. + 0
 970              	hadc1:
 971 0000 00000000 		.space	48
 971      00000000 
 971      00000000 
 971      00000000 
 971      00000000 
 972              		.section	.bss.hspi1,"aw",%nobits
 973              		.align	2
 974              		.set	.LANCHOR3,. + 0
 977              	hspi1:
 978 0000 00000000 		.space	88
 978      00000000 
 978      00000000 
 978      00000000 
 978      00000000 
 979              		.section	.bss.huart1,"aw",%nobits
ARM GAS  C:\Users\DELLPR~1\AppData\Local\Temp\ccYIRYeN.s 			page 32


 980              		.align	2
 981              		.set	.LANCHOR5,. + 0
 984              	huart1:
 985 0000 00000000 		.space	68
 985      00000000 
 985      00000000 
 985      00000000 
 985      00000000 
 986              		.section	.bss.u16_ADCVal,"aw",%nobits
 987              		.align	1
 988              		.set	.LANCHOR4,. + 0
 991              	u16_ADCVal:
 992 0000 0000     		.space	2
 993              		.section	.rodata.EScale_Task_attributes,"a"
 994              		.align	2
 995              		.set	.LANCHOR8,. + 0
 998              	EScale_Task_attributes:
 999 0000 18000000 		.word	.LC3
 1000 0004 00000000 		.space	16
 1000      00000000 
 1000      00000000 
 1000      00000000 
 1001 0014 00020000 		.word	512
 1002 0018 08000000 		.word	8
 1003 001c 00000000 		.space	8
 1003      00000000 
 1004              		.section	.rodata.RFID_Task_attributes,"a"
 1005              		.align	2
 1006              		.set	.LANCHOR12,. + 0
 1009              	RFID_Task_attributes:
 1010 0000 00000000 		.word	.LC1
 1011 0004 00000000 		.space	16
 1011      00000000 
 1011      00000000 
 1011      00000000 
 1012 0014 00020000 		.word	512
 1013 0018 08000000 		.word	8
 1014 001c 00000000 		.space	8
 1014      00000000 
 1015              		.section	.rodata.UART_Task_attributes,"a"
 1016              		.align	2
 1017              		.set	.LANCHOR10,. + 0
 1020              	UART_Task_attributes:
 1021 0000 0C000000 		.word	.LC2
 1022 0004 00000000 		.space	16
 1022      00000000 
 1022      00000000 
 1022      00000000 
 1023 0014 00020000 		.word	512
 1024 0018 08000000 		.word	8
 1025 001c 00000000 		.space	8
 1025      00000000 
 1026              		.section	.rodata.defaultTask_attributes,"a"
 1027              		.align	2
 1028              		.set	.LANCHOR6,. + 0
 1031              	defaultTask_attributes:
 1032 0000 24000000 		.word	.LC4
ARM GAS  C:\Users\DELLPR~1\AppData\Local\Temp\ccYIRYeN.s 			page 33


 1033 0004 00000000 		.space	16
 1033      00000000 
 1033      00000000 
 1033      00000000 
 1034 0014 00020000 		.word	512
 1035 0018 18000000 		.word	24
 1036 001c 00000000 		.space	8
 1036      00000000 
 1037              		.text
 1038              	.Letext0:
 1039              		.file 3 "c:\\gcc-arm-11.2-2022.02-mingw-w64-i686-arm-none-eabi\\arm-none-eabi\\include\\machine\\_
 1040              		.file 4 "c:\\gcc-arm-11.2-2022.02-mingw-w64-i686-arm-none-eabi\\arm-none-eabi\\include\\sys\\_stdi
 1041              		.file 5 "Drivers/CMSIS/Device/ST/STM32F1xx/Include/stm32f103xb.h"
 1042              		.file 6 "Drivers/CMSIS/Device/ST/STM32F1xx/Include/stm32f1xx.h"
 1043              		.file 7 "Drivers/STM32F1xx_HAL_Driver/Inc/stm32f1xx_hal_def.h"
 1044              		.file 8 "Drivers/STM32F1xx_HAL_Driver/Inc/stm32f1xx_hal_rcc.h"
 1045              		.file 9 "Drivers/STM32F1xx_HAL_Driver/Inc/stm32f1xx_hal_rcc_ex.h"
 1046              		.file 10 "Drivers/STM32F1xx_HAL_Driver/Inc/stm32f1xx_hal_gpio.h"
 1047              		.file 11 "Drivers/STM32F1xx_HAL_Driver/Inc/stm32f1xx_hal_dma.h"
 1048              		.file 12 "Drivers/STM32F1xx_HAL_Driver/Inc/stm32f1xx_hal_adc.h"
 1049              		.file 13 "Drivers/STM32F1xx_HAL_Driver/Inc/stm32f1xx_hal_spi.h"
 1050              		.file 14 "Drivers/STM32F1xx_HAL_Driver/Inc/stm32f1xx_hal_tim.h"
 1051              		.file 15 "Drivers/STM32F1xx_HAL_Driver/Inc/stm32f1xx_hal_uart.h"
 1052              		.file 16 "Middlewares/Third_Party/FreeRTOS/Source/CMSIS_RTOS_V2/cmsis_os2.h"
 1053              		.file 17 "Drivers/STM32F1xx_HAL_Driver/Inc/stm32f1xx_hal.h"
 1054              		.file 18 "<built-in>"
ARM GAS  C:\Users\DELLPR~1\AppData\Local\Temp\ccYIRYeN.s 			page 34

