ARM GAS  C:\Users\DELLPR~1\AppData\Local\Temp\cc4bMeZF.s 			page 1


   1              		.cpu cortex-m3
   2              		.arch armv7-m
   3              		.fpu softvfp
   4              		.eabi_attribute 20, 1
   5              		.eabi_attribute 21, 1
   6              		.eabi_attribute 23, 3
   7              		.eabi_attribute 24, 1
   8              		.eabi_attribute 25, 1
   9              		.eabi_attribute 26, 1
  10              		.eabi_attribute 30, 1
  11              		.eabi_attribute 34, 1
  12              		.eabi_attribute 18, 4
  13              		.file	"stm32f1xx_hal_msp.c"
  14              		.text
  15              	.Ltext0:
  16              		.cfi_sections	.debug_frame
  17              		.section	.text.HAL_MspInit,"ax",%progbits
  18              		.align	1
  19              		.global	HAL_MspInit
  20              		.syntax unified
  21              		.thumb
  22              		.thumb_func
  24              	HAL_MspInit:
  25              	.LFB65:
  26              		.file 1 "Core/Src/stm32f1xx_hal_msp.c"
   1:Core/Src/stm32f1xx_hal_msp.c **** /* USER CODE BEGIN Header */
   2:Core/Src/stm32f1xx_hal_msp.c **** /**
   3:Core/Src/stm32f1xx_hal_msp.c ****   ******************************************************************************
   4:Core/Src/stm32f1xx_hal_msp.c ****   * @file         stm32f1xx_hal_msp.c
   5:Core/Src/stm32f1xx_hal_msp.c ****   * @brief        This file provides code for the MSP Initialization
   6:Core/Src/stm32f1xx_hal_msp.c ****   *               and de-Initialization codes.
   7:Core/Src/stm32f1xx_hal_msp.c ****   ******************************************************************************
   8:Core/Src/stm32f1xx_hal_msp.c ****   * @attention
   9:Core/Src/stm32f1xx_hal_msp.c ****   *
  10:Core/Src/stm32f1xx_hal_msp.c ****   * <h2><center>&copy; Copyright (c) 2022 STMicroelectronics.
  11:Core/Src/stm32f1xx_hal_msp.c ****   * All rights reserved.</center></h2>
  12:Core/Src/stm32f1xx_hal_msp.c ****   *
  13:Core/Src/stm32f1xx_hal_msp.c ****   * This software component is licensed by ST under BSD 3-Clause license,
  14:Core/Src/stm32f1xx_hal_msp.c ****   * the "License"; You may not use this file except in compliance with the
  15:Core/Src/stm32f1xx_hal_msp.c ****   * License. You may obtain a copy of the License at:
  16:Core/Src/stm32f1xx_hal_msp.c ****   *                        opensource.org/licenses/BSD-3-Clause
  17:Core/Src/stm32f1xx_hal_msp.c ****   *
  18:Core/Src/stm32f1xx_hal_msp.c ****   ******************************************************************************
  19:Core/Src/stm32f1xx_hal_msp.c ****   */
  20:Core/Src/stm32f1xx_hal_msp.c **** /* USER CODE END Header */
  21:Core/Src/stm32f1xx_hal_msp.c **** 
  22:Core/Src/stm32f1xx_hal_msp.c **** /* Includes ------------------------------------------------------------------*/
  23:Core/Src/stm32f1xx_hal_msp.c **** #include "main.h"
  24:Core/Src/stm32f1xx_hal_msp.c **** /* USER CODE BEGIN Includes */
  25:Core/Src/stm32f1xx_hal_msp.c **** 
  26:Core/Src/stm32f1xx_hal_msp.c **** /* USER CODE END Includes */
  27:Core/Src/stm32f1xx_hal_msp.c **** 
  28:Core/Src/stm32f1xx_hal_msp.c **** /* Private typedef -----------------------------------------------------------*/
  29:Core/Src/stm32f1xx_hal_msp.c **** /* USER CODE BEGIN TD */
  30:Core/Src/stm32f1xx_hal_msp.c **** 
  31:Core/Src/stm32f1xx_hal_msp.c **** /* USER CODE END TD */
  32:Core/Src/stm32f1xx_hal_msp.c **** 
ARM GAS  C:\Users\DELLPR~1\AppData\Local\Temp\cc4bMeZF.s 			page 2


  33:Core/Src/stm32f1xx_hal_msp.c **** /* Private define ------------------------------------------------------------*/
  34:Core/Src/stm32f1xx_hal_msp.c **** /* USER CODE BEGIN Define */
  35:Core/Src/stm32f1xx_hal_msp.c **** 
  36:Core/Src/stm32f1xx_hal_msp.c **** /* USER CODE END Define */
  37:Core/Src/stm32f1xx_hal_msp.c **** 
  38:Core/Src/stm32f1xx_hal_msp.c **** /* Private macro -------------------------------------------------------------*/
  39:Core/Src/stm32f1xx_hal_msp.c **** /* USER CODE BEGIN Macro */
  40:Core/Src/stm32f1xx_hal_msp.c **** 
  41:Core/Src/stm32f1xx_hal_msp.c **** /* USER CODE END Macro */
  42:Core/Src/stm32f1xx_hal_msp.c **** 
  43:Core/Src/stm32f1xx_hal_msp.c **** /* Private variables ---------------------------------------------------------*/
  44:Core/Src/stm32f1xx_hal_msp.c **** /* USER CODE BEGIN PV */
  45:Core/Src/stm32f1xx_hal_msp.c **** 
  46:Core/Src/stm32f1xx_hal_msp.c **** /* USER CODE END PV */
  47:Core/Src/stm32f1xx_hal_msp.c **** 
  48:Core/Src/stm32f1xx_hal_msp.c **** /* Private function prototypes -----------------------------------------------*/
  49:Core/Src/stm32f1xx_hal_msp.c **** /* USER CODE BEGIN PFP */
  50:Core/Src/stm32f1xx_hal_msp.c **** 
  51:Core/Src/stm32f1xx_hal_msp.c **** /* USER CODE END PFP */
  52:Core/Src/stm32f1xx_hal_msp.c **** 
  53:Core/Src/stm32f1xx_hal_msp.c **** /* External functions --------------------------------------------------------*/
  54:Core/Src/stm32f1xx_hal_msp.c **** /* USER CODE BEGIN ExternalFunctions */
  55:Core/Src/stm32f1xx_hal_msp.c **** 
  56:Core/Src/stm32f1xx_hal_msp.c **** /* USER CODE END ExternalFunctions */
  57:Core/Src/stm32f1xx_hal_msp.c **** 
  58:Core/Src/stm32f1xx_hal_msp.c **** /* USER CODE BEGIN 0 */
  59:Core/Src/stm32f1xx_hal_msp.c **** 
  60:Core/Src/stm32f1xx_hal_msp.c **** /* USER CODE END 0 */
  61:Core/Src/stm32f1xx_hal_msp.c **** /**
  62:Core/Src/stm32f1xx_hal_msp.c ****   * Initializes the Global MSP.
  63:Core/Src/stm32f1xx_hal_msp.c ****   */
  64:Core/Src/stm32f1xx_hal_msp.c **** void HAL_MspInit(void)
  65:Core/Src/stm32f1xx_hal_msp.c **** {
  27              		.loc 1 65 1 view -0
  28              		.cfi_startproc
  29              		@ args = 0, pretend = 0, frame = 8
  30              		@ frame_needed = 0, uses_anonymous_args = 0
  31 0000 00B5     		push	{lr}
  32              	.LCFI0:
  33              		.cfi_def_cfa_offset 4
  34              		.cfi_offset 14, -4
  35 0002 83B0     		sub	sp, sp, #12
  36              	.LCFI1:
  37              		.cfi_def_cfa_offset 16
  66:Core/Src/stm32f1xx_hal_msp.c ****   /* USER CODE BEGIN MspInit 0 */
  67:Core/Src/stm32f1xx_hal_msp.c **** 
  68:Core/Src/stm32f1xx_hal_msp.c ****   /* USER CODE END MspInit 0 */
  69:Core/Src/stm32f1xx_hal_msp.c **** 
  70:Core/Src/stm32f1xx_hal_msp.c ****   __HAL_RCC_AFIO_CLK_ENABLE();
  38              		.loc 1 70 3 view .LVU1
  39              	.LBB2:
  40              		.loc 1 70 3 view .LVU2
  41              		.loc 1 70 3 view .LVU3
  42 0004 114B     		ldr	r3, .L3
  43 0006 9A69     		ldr	r2, [r3, #24]
  44 0008 42F00102 		orr	r2, r2, #1
  45 000c 9A61     		str	r2, [r3, #24]
ARM GAS  C:\Users\DELLPR~1\AppData\Local\Temp\cc4bMeZF.s 			page 3


  46              		.loc 1 70 3 view .LVU4
  47 000e 9A69     		ldr	r2, [r3, #24]
  48 0010 02F00102 		and	r2, r2, #1
  49 0014 0092     		str	r2, [sp]
  50              		.loc 1 70 3 view .LVU5
  51 0016 009A     		ldr	r2, [sp]
  52              	.LBE2:
  53              		.loc 1 70 3 view .LVU6
  71:Core/Src/stm32f1xx_hal_msp.c ****   __HAL_RCC_PWR_CLK_ENABLE();
  54              		.loc 1 71 3 view .LVU7
  55              	.LBB3:
  56              		.loc 1 71 3 view .LVU8
  57              		.loc 1 71 3 view .LVU9
  58 0018 DA69     		ldr	r2, [r3, #28]
  59 001a 42F08052 		orr	r2, r2, #268435456
  60 001e DA61     		str	r2, [r3, #28]
  61              		.loc 1 71 3 view .LVU10
  62 0020 DB69     		ldr	r3, [r3, #28]
  63 0022 03F08053 		and	r3, r3, #268435456
  64 0026 0193     		str	r3, [sp, #4]
  65              		.loc 1 71 3 view .LVU11
  66 0028 019B     		ldr	r3, [sp, #4]
  67              	.LBE3:
  68              		.loc 1 71 3 view .LVU12
  72:Core/Src/stm32f1xx_hal_msp.c **** 
  73:Core/Src/stm32f1xx_hal_msp.c ****   /* System interrupt init*/
  74:Core/Src/stm32f1xx_hal_msp.c ****   /* PendSV_IRQn interrupt configuration */
  75:Core/Src/stm32f1xx_hal_msp.c ****   HAL_NVIC_SetPriority(PendSV_IRQn, 15, 0);
  69              		.loc 1 75 3 view .LVU13
  70 002a 0022     		movs	r2, #0
  71 002c 0F21     		movs	r1, #15
  72 002e 6FF00100 		mvn	r0, #1
  73 0032 FFF7FEFF 		bl	HAL_NVIC_SetPriority
  74              	.LVL0:
  76:Core/Src/stm32f1xx_hal_msp.c **** 
  77:Core/Src/stm32f1xx_hal_msp.c ****   /** NOJTAG: JTAG-DP Disabled and SW-DP Enabled
  78:Core/Src/stm32f1xx_hal_msp.c ****   */
  79:Core/Src/stm32f1xx_hal_msp.c ****   __HAL_AFIO_REMAP_SWJ_NOJTAG();
  75              		.loc 1 79 3 view .LVU14
  76              	.LBB4:
  77              		.loc 1 79 3 view .LVU15
  78 0036 064A     		ldr	r2, .L3+4
  79 0038 5368     		ldr	r3, [r2, #4]
  80              	.LVL1:
  81              		.loc 1 79 3 view .LVU16
  82 003a 23F0E063 		bic	r3, r3, #117440512
  83              	.LVL2:
  84              		.loc 1 79 3 view .LVU17
  85 003e 43F00073 		orr	r3, r3, #33554432
  86              	.LVL3:
  87              		.loc 1 79 3 view .LVU18
  88 0042 5360     		str	r3, [r2, #4]
  89              	.LBE4:
  90              		.loc 1 79 3 view .LVU19
  80:Core/Src/stm32f1xx_hal_msp.c **** 
  81:Core/Src/stm32f1xx_hal_msp.c ****   /* USER CODE BEGIN MspInit 1 */
  82:Core/Src/stm32f1xx_hal_msp.c **** 
ARM GAS  C:\Users\DELLPR~1\AppData\Local\Temp\cc4bMeZF.s 			page 4


  83:Core/Src/stm32f1xx_hal_msp.c ****   /* USER CODE END MspInit 1 */
  84:Core/Src/stm32f1xx_hal_msp.c **** }
  91              		.loc 1 84 1 is_stmt 0 view .LVU20
  92 0044 03B0     		add	sp, sp, #12
  93              	.LCFI2:
  94              		.cfi_def_cfa_offset 4
  95              		@ sp needed
  96 0046 5DF804FB 		ldr	pc, [sp], #4
  97              	.L4:
  98 004a 00BF     		.align	2
  99              	.L3:
 100 004c 00100240 		.word	1073876992
 101 0050 00000140 		.word	1073807360
 102              		.cfi_endproc
 103              	.LFE65:
 105              		.section	.text.HAL_ADC_MspInit,"ax",%progbits
 106              		.align	1
 107              		.global	HAL_ADC_MspInit
 108              		.syntax unified
 109              		.thumb
 110              		.thumb_func
 112              	HAL_ADC_MspInit:
 113              	.LVL4:
 114              	.LFB66:
  85:Core/Src/stm32f1xx_hal_msp.c **** 
  86:Core/Src/stm32f1xx_hal_msp.c **** /**
  87:Core/Src/stm32f1xx_hal_msp.c **** * @brief ADC MSP Initialization
  88:Core/Src/stm32f1xx_hal_msp.c **** * This function configures the hardware resources used in this example
  89:Core/Src/stm32f1xx_hal_msp.c **** * @param hadc: ADC handle pointer
  90:Core/Src/stm32f1xx_hal_msp.c **** * @retval None
  91:Core/Src/stm32f1xx_hal_msp.c **** */
  92:Core/Src/stm32f1xx_hal_msp.c **** void HAL_ADC_MspInit(ADC_HandleTypeDef* hadc)
  93:Core/Src/stm32f1xx_hal_msp.c **** {
 115              		.loc 1 93 1 is_stmt 1 view -0
 116              		.cfi_startproc
 117              		@ args = 0, pretend = 0, frame = 24
 118              		@ frame_needed = 0, uses_anonymous_args = 0
 119              		.loc 1 93 1 is_stmt 0 view .LVU22
 120 0000 00B5     		push	{lr}
 121              	.LCFI3:
 122              		.cfi_def_cfa_offset 4
 123              		.cfi_offset 14, -4
 124 0002 87B0     		sub	sp, sp, #28
 125              	.LCFI4:
 126              		.cfi_def_cfa_offset 32
  94:Core/Src/stm32f1xx_hal_msp.c ****   GPIO_InitTypeDef GPIO_InitStruct = {0};
 127              		.loc 1 94 3 is_stmt 1 view .LVU23
 128              		.loc 1 94 20 is_stmt 0 view .LVU24
 129 0004 0023     		movs	r3, #0
 130 0006 0293     		str	r3, [sp, #8]
 131 0008 0393     		str	r3, [sp, #12]
 132 000a 0493     		str	r3, [sp, #16]
 133 000c 0593     		str	r3, [sp, #20]
  95:Core/Src/stm32f1xx_hal_msp.c ****   if(hadc->Instance==ADC1)
 134              		.loc 1 95 3 is_stmt 1 view .LVU25
 135              		.loc 1 95 10 is_stmt 0 view .LVU26
 136 000e 0268     		ldr	r2, [r0]
ARM GAS  C:\Users\DELLPR~1\AppData\Local\Temp\cc4bMeZF.s 			page 5


 137              		.loc 1 95 5 view .LVU27
 138 0010 114B     		ldr	r3, .L9
 139 0012 9A42     		cmp	r2, r3
 140 0014 02D0     		beq	.L8
 141              	.LVL5:
 142              	.L5:
  96:Core/Src/stm32f1xx_hal_msp.c ****   {
  97:Core/Src/stm32f1xx_hal_msp.c ****   /* USER CODE BEGIN ADC1_MspInit 0 */
  98:Core/Src/stm32f1xx_hal_msp.c **** 
  99:Core/Src/stm32f1xx_hal_msp.c ****   /* USER CODE END ADC1_MspInit 0 */
 100:Core/Src/stm32f1xx_hal_msp.c ****     /* Peripheral clock enable */
 101:Core/Src/stm32f1xx_hal_msp.c ****     __HAL_RCC_ADC1_CLK_ENABLE();
 102:Core/Src/stm32f1xx_hal_msp.c **** 
 103:Core/Src/stm32f1xx_hal_msp.c ****     __HAL_RCC_GPIOA_CLK_ENABLE();
 104:Core/Src/stm32f1xx_hal_msp.c ****     /**ADC1 GPIO Configuration
 105:Core/Src/stm32f1xx_hal_msp.c ****     PA0-WKUP     ------> ADC1_IN0
 106:Core/Src/stm32f1xx_hal_msp.c ****     */
 107:Core/Src/stm32f1xx_hal_msp.c ****     GPIO_InitStruct.Pin = GPIO_PIN_0;
 108:Core/Src/stm32f1xx_hal_msp.c ****     GPIO_InitStruct.Mode = GPIO_MODE_ANALOG;
 109:Core/Src/stm32f1xx_hal_msp.c ****     HAL_GPIO_Init(GPIOA, &GPIO_InitStruct);
 110:Core/Src/stm32f1xx_hal_msp.c **** 
 111:Core/Src/stm32f1xx_hal_msp.c ****   /* USER CODE BEGIN ADC1_MspInit 1 */
 112:Core/Src/stm32f1xx_hal_msp.c **** 
 113:Core/Src/stm32f1xx_hal_msp.c ****   /* USER CODE END ADC1_MspInit 1 */
 114:Core/Src/stm32f1xx_hal_msp.c ****   }
 115:Core/Src/stm32f1xx_hal_msp.c **** 
 116:Core/Src/stm32f1xx_hal_msp.c **** }
 143              		.loc 1 116 1 view .LVU28
 144 0016 07B0     		add	sp, sp, #28
 145              	.LCFI5:
 146              		.cfi_remember_state
 147              		.cfi_def_cfa_offset 4
 148              		@ sp needed
 149 0018 5DF804FB 		ldr	pc, [sp], #4
 150              	.LVL6:
 151              	.L8:
 152              	.LCFI6:
 153              		.cfi_restore_state
 101:Core/Src/stm32f1xx_hal_msp.c **** 
 154              		.loc 1 101 5 is_stmt 1 view .LVU29
 155              	.LBB5:
 101:Core/Src/stm32f1xx_hal_msp.c **** 
 156              		.loc 1 101 5 view .LVU30
 101:Core/Src/stm32f1xx_hal_msp.c **** 
 157              		.loc 1 101 5 view .LVU31
 158 001c 03F56C43 		add	r3, r3, #60416
 159 0020 9A69     		ldr	r2, [r3, #24]
 160 0022 42F40072 		orr	r2, r2, #512
 161 0026 9A61     		str	r2, [r3, #24]
 101:Core/Src/stm32f1xx_hal_msp.c **** 
 162              		.loc 1 101 5 view .LVU32
 163 0028 9A69     		ldr	r2, [r3, #24]
 164 002a 02F40072 		and	r2, r2, #512
 165 002e 0092     		str	r2, [sp]
 101:Core/Src/stm32f1xx_hal_msp.c **** 
 166              		.loc 1 101 5 view .LVU33
 167 0030 009A     		ldr	r2, [sp]
ARM GAS  C:\Users\DELLPR~1\AppData\Local\Temp\cc4bMeZF.s 			page 6


 168              	.LBE5:
 101:Core/Src/stm32f1xx_hal_msp.c **** 
 169              		.loc 1 101 5 view .LVU34
 103:Core/Src/stm32f1xx_hal_msp.c ****     /**ADC1 GPIO Configuration
 170              		.loc 1 103 5 view .LVU35
 171              	.LBB6:
 103:Core/Src/stm32f1xx_hal_msp.c ****     /**ADC1 GPIO Configuration
 172              		.loc 1 103 5 view .LVU36
 103:Core/Src/stm32f1xx_hal_msp.c ****     /**ADC1 GPIO Configuration
 173              		.loc 1 103 5 view .LVU37
 174 0032 9A69     		ldr	r2, [r3, #24]
 175 0034 42F00402 		orr	r2, r2, #4
 176 0038 9A61     		str	r2, [r3, #24]
 103:Core/Src/stm32f1xx_hal_msp.c ****     /**ADC1 GPIO Configuration
 177              		.loc 1 103 5 view .LVU38
 178 003a 9B69     		ldr	r3, [r3, #24]
 179 003c 03F00403 		and	r3, r3, #4
 180 0040 0193     		str	r3, [sp, #4]
 103:Core/Src/stm32f1xx_hal_msp.c ****     /**ADC1 GPIO Configuration
 181              		.loc 1 103 5 view .LVU39
 182 0042 019B     		ldr	r3, [sp, #4]
 183              	.LBE6:
 103:Core/Src/stm32f1xx_hal_msp.c ****     /**ADC1 GPIO Configuration
 184              		.loc 1 103 5 view .LVU40
 107:Core/Src/stm32f1xx_hal_msp.c ****     GPIO_InitStruct.Mode = GPIO_MODE_ANALOG;
 185              		.loc 1 107 5 view .LVU41
 107:Core/Src/stm32f1xx_hal_msp.c ****     GPIO_InitStruct.Mode = GPIO_MODE_ANALOG;
 186              		.loc 1 107 25 is_stmt 0 view .LVU42
 187 0044 0123     		movs	r3, #1
 188 0046 0293     		str	r3, [sp, #8]
 108:Core/Src/stm32f1xx_hal_msp.c ****     HAL_GPIO_Init(GPIOA, &GPIO_InitStruct);
 189              		.loc 1 108 5 is_stmt 1 view .LVU43
 108:Core/Src/stm32f1xx_hal_msp.c ****     HAL_GPIO_Init(GPIOA, &GPIO_InitStruct);
 190              		.loc 1 108 26 is_stmt 0 view .LVU44
 191 0048 0323     		movs	r3, #3
 192 004a 0393     		str	r3, [sp, #12]
 109:Core/Src/stm32f1xx_hal_msp.c **** 
 193              		.loc 1 109 5 is_stmt 1 view .LVU45
 194 004c 02A9     		add	r1, sp, #8
 195 004e 0348     		ldr	r0, .L9+4
 196              	.LVL7:
 109:Core/Src/stm32f1xx_hal_msp.c **** 
 197              		.loc 1 109 5 is_stmt 0 view .LVU46
 198 0050 FFF7FEFF 		bl	HAL_GPIO_Init
 199              	.LVL8:
 200              		.loc 1 116 1 view .LVU47
 201 0054 DFE7     		b	.L5
 202              	.L10:
 203 0056 00BF     		.align	2
 204              	.L9:
 205 0058 00240140 		.word	1073816576
 206 005c 00080140 		.word	1073809408
 207              		.cfi_endproc
 208              	.LFE66:
 210              		.section	.text.HAL_ADC_MspDeInit,"ax",%progbits
 211              		.align	1
 212              		.global	HAL_ADC_MspDeInit
ARM GAS  C:\Users\DELLPR~1\AppData\Local\Temp\cc4bMeZF.s 			page 7


 213              		.syntax unified
 214              		.thumb
 215              		.thumb_func
 217              	HAL_ADC_MspDeInit:
 218              	.LVL9:
 219              	.LFB67:
 117:Core/Src/stm32f1xx_hal_msp.c **** 
 118:Core/Src/stm32f1xx_hal_msp.c **** /**
 119:Core/Src/stm32f1xx_hal_msp.c **** * @brief ADC MSP De-Initialization
 120:Core/Src/stm32f1xx_hal_msp.c **** * This function freeze the hardware resources used in this example
 121:Core/Src/stm32f1xx_hal_msp.c **** * @param hadc: ADC handle pointer
 122:Core/Src/stm32f1xx_hal_msp.c **** * @retval None
 123:Core/Src/stm32f1xx_hal_msp.c **** */
 124:Core/Src/stm32f1xx_hal_msp.c **** void HAL_ADC_MspDeInit(ADC_HandleTypeDef* hadc)
 125:Core/Src/stm32f1xx_hal_msp.c **** {
 220              		.loc 1 125 1 is_stmt 1 view -0
 221              		.cfi_startproc
 222              		@ args = 0, pretend = 0, frame = 0
 223              		@ frame_needed = 0, uses_anonymous_args = 0
 224              		.loc 1 125 1 is_stmt 0 view .LVU49
 225 0000 08B5     		push	{r3, lr}
 226              	.LCFI7:
 227              		.cfi_def_cfa_offset 8
 228              		.cfi_offset 3, -8
 229              		.cfi_offset 14, -4
 126:Core/Src/stm32f1xx_hal_msp.c ****   if(hadc->Instance==ADC1)
 230              		.loc 1 126 3 is_stmt 1 view .LVU50
 231              		.loc 1 126 10 is_stmt 0 view .LVU51
 232 0002 0268     		ldr	r2, [r0]
 233              		.loc 1 126 5 view .LVU52
 234 0004 064B     		ldr	r3, .L15
 235 0006 9A42     		cmp	r2, r3
 236 0008 00D0     		beq	.L14
 237              	.LVL10:
 238              	.L11:
 127:Core/Src/stm32f1xx_hal_msp.c ****   {
 128:Core/Src/stm32f1xx_hal_msp.c ****   /* USER CODE BEGIN ADC1_MspDeInit 0 */
 129:Core/Src/stm32f1xx_hal_msp.c **** 
 130:Core/Src/stm32f1xx_hal_msp.c ****   /* USER CODE END ADC1_MspDeInit 0 */
 131:Core/Src/stm32f1xx_hal_msp.c ****     /* Peripheral clock disable */
 132:Core/Src/stm32f1xx_hal_msp.c ****     __HAL_RCC_ADC1_CLK_DISABLE();
 133:Core/Src/stm32f1xx_hal_msp.c **** 
 134:Core/Src/stm32f1xx_hal_msp.c ****     /**ADC1 GPIO Configuration
 135:Core/Src/stm32f1xx_hal_msp.c ****     PA0-WKUP     ------> ADC1_IN0
 136:Core/Src/stm32f1xx_hal_msp.c ****     */
 137:Core/Src/stm32f1xx_hal_msp.c ****     HAL_GPIO_DeInit(GPIOA, GPIO_PIN_0);
 138:Core/Src/stm32f1xx_hal_msp.c **** 
 139:Core/Src/stm32f1xx_hal_msp.c ****   /* USER CODE BEGIN ADC1_MspDeInit 1 */
 140:Core/Src/stm32f1xx_hal_msp.c **** 
 141:Core/Src/stm32f1xx_hal_msp.c ****   /* USER CODE END ADC1_MspDeInit 1 */
 142:Core/Src/stm32f1xx_hal_msp.c ****   }
 143:Core/Src/stm32f1xx_hal_msp.c **** 
 144:Core/Src/stm32f1xx_hal_msp.c **** }
 239              		.loc 1 144 1 view .LVU53
 240 000a 08BD     		pop	{r3, pc}
 241              	.LVL11:
 242              	.L14:
ARM GAS  C:\Users\DELLPR~1\AppData\Local\Temp\cc4bMeZF.s 			page 8


 132:Core/Src/stm32f1xx_hal_msp.c **** 
 243              		.loc 1 132 5 is_stmt 1 view .LVU54
 244 000c 054A     		ldr	r2, .L15+4
 245 000e 9369     		ldr	r3, [r2, #24]
 246 0010 23F40073 		bic	r3, r3, #512
 247 0014 9361     		str	r3, [r2, #24]
 137:Core/Src/stm32f1xx_hal_msp.c **** 
 248              		.loc 1 137 5 view .LVU55
 249 0016 0121     		movs	r1, #1
 250 0018 0348     		ldr	r0, .L15+8
 251              	.LVL12:
 137:Core/Src/stm32f1xx_hal_msp.c **** 
 252              		.loc 1 137 5 is_stmt 0 view .LVU56
 253 001a FFF7FEFF 		bl	HAL_GPIO_DeInit
 254              	.LVL13:
 255              		.loc 1 144 1 view .LVU57
 256 001e F4E7     		b	.L11
 257              	.L16:
 258              		.align	2
 259              	.L15:
 260 0020 00240140 		.word	1073816576
 261 0024 00100240 		.word	1073876992
 262 0028 00080140 		.word	1073809408
 263              		.cfi_endproc
 264              	.LFE67:
 266              		.section	.text.HAL_SPI_MspInit,"ax",%progbits
 267              		.align	1
 268              		.global	HAL_SPI_MspInit
 269              		.syntax unified
 270              		.thumb
 271              		.thumb_func
 273              	HAL_SPI_MspInit:
 274              	.LVL14:
 275              	.LFB68:
 145:Core/Src/stm32f1xx_hal_msp.c **** 
 146:Core/Src/stm32f1xx_hal_msp.c **** /**
 147:Core/Src/stm32f1xx_hal_msp.c **** * @brief SPI MSP Initialization
 148:Core/Src/stm32f1xx_hal_msp.c **** * This function configures the hardware resources used in this example
 149:Core/Src/stm32f1xx_hal_msp.c **** * @param hspi: SPI handle pointer
 150:Core/Src/stm32f1xx_hal_msp.c **** * @retval None
 151:Core/Src/stm32f1xx_hal_msp.c **** */
 152:Core/Src/stm32f1xx_hal_msp.c **** void HAL_SPI_MspInit(SPI_HandleTypeDef* hspi)
 153:Core/Src/stm32f1xx_hal_msp.c **** {
 276              		.loc 1 153 1 is_stmt 1 view -0
 277              		.cfi_startproc
 278              		@ args = 0, pretend = 0, frame = 24
 279              		@ frame_needed = 0, uses_anonymous_args = 0
 280              		.loc 1 153 1 is_stmt 0 view .LVU59
 281 0000 10B5     		push	{r4, lr}
 282              	.LCFI8:
 283              		.cfi_def_cfa_offset 8
 284              		.cfi_offset 4, -8
 285              		.cfi_offset 14, -4
 286 0002 86B0     		sub	sp, sp, #24
 287              	.LCFI9:
 288              		.cfi_def_cfa_offset 32
 154:Core/Src/stm32f1xx_hal_msp.c ****   GPIO_InitTypeDef GPIO_InitStruct = {0};
ARM GAS  C:\Users\DELLPR~1\AppData\Local\Temp\cc4bMeZF.s 			page 9


 289              		.loc 1 154 3 is_stmt 1 view .LVU60
 290              		.loc 1 154 20 is_stmt 0 view .LVU61
 291 0004 0023     		movs	r3, #0
 292 0006 0293     		str	r3, [sp, #8]
 293 0008 0393     		str	r3, [sp, #12]
 294 000a 0493     		str	r3, [sp, #16]
 295 000c 0593     		str	r3, [sp, #20]
 155:Core/Src/stm32f1xx_hal_msp.c ****   if(hspi->Instance==SPI1)
 296              		.loc 1 155 3 is_stmt 1 view .LVU62
 297              		.loc 1 155 10 is_stmt 0 view .LVU63
 298 000e 0268     		ldr	r2, [r0]
 299              		.loc 1 155 5 view .LVU64
 300 0010 164B     		ldr	r3, .L21
 301 0012 9A42     		cmp	r2, r3
 302 0014 01D0     		beq	.L20
 303              	.LVL15:
 304              	.L17:
 156:Core/Src/stm32f1xx_hal_msp.c ****   {
 157:Core/Src/stm32f1xx_hal_msp.c ****   /* USER CODE BEGIN SPI1_MspInit 0 */
 158:Core/Src/stm32f1xx_hal_msp.c **** 
 159:Core/Src/stm32f1xx_hal_msp.c ****   /* USER CODE END SPI1_MspInit 0 */
 160:Core/Src/stm32f1xx_hal_msp.c ****     /* Peripheral clock enable */
 161:Core/Src/stm32f1xx_hal_msp.c ****     __HAL_RCC_SPI1_CLK_ENABLE();
 162:Core/Src/stm32f1xx_hal_msp.c **** 
 163:Core/Src/stm32f1xx_hal_msp.c ****     __HAL_RCC_GPIOA_CLK_ENABLE();
 164:Core/Src/stm32f1xx_hal_msp.c ****     /**SPI1 GPIO Configuration
 165:Core/Src/stm32f1xx_hal_msp.c ****     PA5     ------> SPI1_SCK
 166:Core/Src/stm32f1xx_hal_msp.c ****     PA6     ------> SPI1_MISO
 167:Core/Src/stm32f1xx_hal_msp.c ****     PA7     ------> SPI1_MOSI
 168:Core/Src/stm32f1xx_hal_msp.c ****     */
 169:Core/Src/stm32f1xx_hal_msp.c ****     GPIO_InitStruct.Pin = GPIO_PIN_5|GPIO_PIN_7;
 170:Core/Src/stm32f1xx_hal_msp.c ****     GPIO_InitStruct.Mode = GPIO_MODE_AF_PP;
 171:Core/Src/stm32f1xx_hal_msp.c ****     GPIO_InitStruct.Speed = GPIO_SPEED_FREQ_HIGH;
 172:Core/Src/stm32f1xx_hal_msp.c ****     HAL_GPIO_Init(GPIOA, &GPIO_InitStruct);
 173:Core/Src/stm32f1xx_hal_msp.c **** 
 174:Core/Src/stm32f1xx_hal_msp.c ****     GPIO_InitStruct.Pin = GPIO_PIN_6;
 175:Core/Src/stm32f1xx_hal_msp.c ****     GPIO_InitStruct.Mode = GPIO_MODE_INPUT;
 176:Core/Src/stm32f1xx_hal_msp.c ****     GPIO_InitStruct.Pull = GPIO_NOPULL;
 177:Core/Src/stm32f1xx_hal_msp.c ****     HAL_GPIO_Init(GPIOA, &GPIO_InitStruct);
 178:Core/Src/stm32f1xx_hal_msp.c **** 
 179:Core/Src/stm32f1xx_hal_msp.c ****   /* USER CODE BEGIN SPI1_MspInit 1 */
 180:Core/Src/stm32f1xx_hal_msp.c **** 
 181:Core/Src/stm32f1xx_hal_msp.c ****   /* USER CODE END SPI1_MspInit 1 */
 182:Core/Src/stm32f1xx_hal_msp.c ****   }
 183:Core/Src/stm32f1xx_hal_msp.c **** 
 184:Core/Src/stm32f1xx_hal_msp.c **** }
 305              		.loc 1 184 1 view .LVU65
 306 0016 06B0     		add	sp, sp, #24
 307              	.LCFI10:
 308              		.cfi_remember_state
 309              		.cfi_def_cfa_offset 8
 310              		@ sp needed
 311 0018 10BD     		pop	{r4, pc}
 312              	.LVL16:
 313              	.L20:
 314              	.LCFI11:
 315              		.cfi_restore_state
ARM GAS  C:\Users\DELLPR~1\AppData\Local\Temp\cc4bMeZF.s 			page 10


 161:Core/Src/stm32f1xx_hal_msp.c **** 
 316              		.loc 1 161 5 is_stmt 1 view .LVU66
 317              	.LBB7:
 161:Core/Src/stm32f1xx_hal_msp.c **** 
 318              		.loc 1 161 5 view .LVU67
 161:Core/Src/stm32f1xx_hal_msp.c **** 
 319              		.loc 1 161 5 view .LVU68
 320 001a 03F56043 		add	r3, r3, #57344
 321 001e 9A69     		ldr	r2, [r3, #24]
 322 0020 42F48052 		orr	r2, r2, #4096
 323 0024 9A61     		str	r2, [r3, #24]
 161:Core/Src/stm32f1xx_hal_msp.c **** 
 324              		.loc 1 161 5 view .LVU69
 325 0026 9A69     		ldr	r2, [r3, #24]
 326 0028 02F48052 		and	r2, r2, #4096
 327 002c 0092     		str	r2, [sp]
 161:Core/Src/stm32f1xx_hal_msp.c **** 
 328              		.loc 1 161 5 view .LVU70
 329 002e 009A     		ldr	r2, [sp]
 330              	.LBE7:
 161:Core/Src/stm32f1xx_hal_msp.c **** 
 331              		.loc 1 161 5 view .LVU71
 163:Core/Src/stm32f1xx_hal_msp.c ****     /**SPI1 GPIO Configuration
 332              		.loc 1 163 5 view .LVU72
 333              	.LBB8:
 163:Core/Src/stm32f1xx_hal_msp.c ****     /**SPI1 GPIO Configuration
 334              		.loc 1 163 5 view .LVU73
 163:Core/Src/stm32f1xx_hal_msp.c ****     /**SPI1 GPIO Configuration
 335              		.loc 1 163 5 view .LVU74
 336 0030 9A69     		ldr	r2, [r3, #24]
 337 0032 42F00402 		orr	r2, r2, #4
 338 0036 9A61     		str	r2, [r3, #24]
 163:Core/Src/stm32f1xx_hal_msp.c ****     /**SPI1 GPIO Configuration
 339              		.loc 1 163 5 view .LVU75
 340 0038 9B69     		ldr	r3, [r3, #24]
 341 003a 03F00403 		and	r3, r3, #4
 342 003e 0193     		str	r3, [sp, #4]
 163:Core/Src/stm32f1xx_hal_msp.c ****     /**SPI1 GPIO Configuration
 343              		.loc 1 163 5 view .LVU76
 344 0040 019B     		ldr	r3, [sp, #4]
 345              	.LBE8:
 163:Core/Src/stm32f1xx_hal_msp.c ****     /**SPI1 GPIO Configuration
 346              		.loc 1 163 5 view .LVU77
 169:Core/Src/stm32f1xx_hal_msp.c ****     GPIO_InitStruct.Mode = GPIO_MODE_AF_PP;
 347              		.loc 1 169 5 view .LVU78
 169:Core/Src/stm32f1xx_hal_msp.c ****     GPIO_InitStruct.Mode = GPIO_MODE_AF_PP;
 348              		.loc 1 169 25 is_stmt 0 view .LVU79
 349 0042 A023     		movs	r3, #160
 350 0044 0293     		str	r3, [sp, #8]
 170:Core/Src/stm32f1xx_hal_msp.c ****     GPIO_InitStruct.Speed = GPIO_SPEED_FREQ_HIGH;
 351              		.loc 1 170 5 is_stmt 1 view .LVU80
 170:Core/Src/stm32f1xx_hal_msp.c ****     GPIO_InitStruct.Speed = GPIO_SPEED_FREQ_HIGH;
 352              		.loc 1 170 26 is_stmt 0 view .LVU81
 353 0046 0223     		movs	r3, #2
 354 0048 0393     		str	r3, [sp, #12]
 171:Core/Src/stm32f1xx_hal_msp.c ****     HAL_GPIO_Init(GPIOA, &GPIO_InitStruct);
 355              		.loc 1 171 5 is_stmt 1 view .LVU82
ARM GAS  C:\Users\DELLPR~1\AppData\Local\Temp\cc4bMeZF.s 			page 11


 171:Core/Src/stm32f1xx_hal_msp.c ****     HAL_GPIO_Init(GPIOA, &GPIO_InitStruct);
 356              		.loc 1 171 27 is_stmt 0 view .LVU83
 357 004a 0323     		movs	r3, #3
 358 004c 0593     		str	r3, [sp, #20]
 172:Core/Src/stm32f1xx_hal_msp.c **** 
 359              		.loc 1 172 5 is_stmt 1 view .LVU84
 360 004e 084C     		ldr	r4, .L21+4
 361 0050 02A9     		add	r1, sp, #8
 362 0052 2046     		mov	r0, r4
 363              	.LVL17:
 172:Core/Src/stm32f1xx_hal_msp.c **** 
 364              		.loc 1 172 5 is_stmt 0 view .LVU85
 365 0054 FFF7FEFF 		bl	HAL_GPIO_Init
 366              	.LVL18:
 174:Core/Src/stm32f1xx_hal_msp.c ****     GPIO_InitStruct.Mode = GPIO_MODE_INPUT;
 367              		.loc 1 174 5 is_stmt 1 view .LVU86
 174:Core/Src/stm32f1xx_hal_msp.c ****     GPIO_InitStruct.Mode = GPIO_MODE_INPUT;
 368              		.loc 1 174 25 is_stmt 0 view .LVU87
 369 0058 4023     		movs	r3, #64
 370 005a 0293     		str	r3, [sp, #8]
 175:Core/Src/stm32f1xx_hal_msp.c ****     GPIO_InitStruct.Pull = GPIO_NOPULL;
 371              		.loc 1 175 5 is_stmt 1 view .LVU88
 175:Core/Src/stm32f1xx_hal_msp.c ****     GPIO_InitStruct.Pull = GPIO_NOPULL;
 372              		.loc 1 175 26 is_stmt 0 view .LVU89
 373 005c 0023     		movs	r3, #0
 374 005e 0393     		str	r3, [sp, #12]
 176:Core/Src/stm32f1xx_hal_msp.c ****     HAL_GPIO_Init(GPIOA, &GPIO_InitStruct);
 375              		.loc 1 176 5 is_stmt 1 view .LVU90
 176:Core/Src/stm32f1xx_hal_msp.c ****     HAL_GPIO_Init(GPIOA, &GPIO_InitStruct);
 376              		.loc 1 176 26 is_stmt 0 view .LVU91
 377 0060 0493     		str	r3, [sp, #16]
 177:Core/Src/stm32f1xx_hal_msp.c **** 
 378              		.loc 1 177 5 is_stmt 1 view .LVU92
 379 0062 02A9     		add	r1, sp, #8
 380 0064 2046     		mov	r0, r4
 381 0066 FFF7FEFF 		bl	HAL_GPIO_Init
 382              	.LVL19:
 383              		.loc 1 184 1 is_stmt 0 view .LVU93
 384 006a D4E7     		b	.L17
 385              	.L22:
 386              		.align	2
 387              	.L21:
 388 006c 00300140 		.word	1073819648
 389 0070 00080140 		.word	1073809408
 390              		.cfi_endproc
 391              	.LFE68:
 393              		.section	.text.HAL_SPI_MspDeInit,"ax",%progbits
 394              		.align	1
 395              		.global	HAL_SPI_MspDeInit
 396              		.syntax unified
 397              		.thumb
 398              		.thumb_func
 400              	HAL_SPI_MspDeInit:
 401              	.LVL20:
 402              	.LFB69:
 185:Core/Src/stm32f1xx_hal_msp.c **** 
 186:Core/Src/stm32f1xx_hal_msp.c **** /**
ARM GAS  C:\Users\DELLPR~1\AppData\Local\Temp\cc4bMeZF.s 			page 12


 187:Core/Src/stm32f1xx_hal_msp.c **** * @brief SPI MSP De-Initialization
 188:Core/Src/stm32f1xx_hal_msp.c **** * This function freeze the hardware resources used in this example
 189:Core/Src/stm32f1xx_hal_msp.c **** * @param hspi: SPI handle pointer
 190:Core/Src/stm32f1xx_hal_msp.c **** * @retval None
 191:Core/Src/stm32f1xx_hal_msp.c **** */
 192:Core/Src/stm32f1xx_hal_msp.c **** void HAL_SPI_MspDeInit(SPI_HandleTypeDef* hspi)
 193:Core/Src/stm32f1xx_hal_msp.c **** {
 403              		.loc 1 193 1 is_stmt 1 view -0
 404              		.cfi_startproc
 405              		@ args = 0, pretend = 0, frame = 0
 406              		@ frame_needed = 0, uses_anonymous_args = 0
 407              		.loc 1 193 1 is_stmt 0 view .LVU95
 408 0000 08B5     		push	{r3, lr}
 409              	.LCFI12:
 410              		.cfi_def_cfa_offset 8
 411              		.cfi_offset 3, -8
 412              		.cfi_offset 14, -4
 194:Core/Src/stm32f1xx_hal_msp.c ****   if(hspi->Instance==SPI1)
 413              		.loc 1 194 3 is_stmt 1 view .LVU96
 414              		.loc 1 194 10 is_stmt 0 view .LVU97
 415 0002 0268     		ldr	r2, [r0]
 416              		.loc 1 194 5 view .LVU98
 417 0004 064B     		ldr	r3, .L27
 418 0006 9A42     		cmp	r2, r3
 419 0008 00D0     		beq	.L26
 420              	.LVL21:
 421              	.L23:
 195:Core/Src/stm32f1xx_hal_msp.c ****   {
 196:Core/Src/stm32f1xx_hal_msp.c ****   /* USER CODE BEGIN SPI1_MspDeInit 0 */
 197:Core/Src/stm32f1xx_hal_msp.c **** 
 198:Core/Src/stm32f1xx_hal_msp.c ****   /* USER CODE END SPI1_MspDeInit 0 */
 199:Core/Src/stm32f1xx_hal_msp.c ****     /* Peripheral clock disable */
 200:Core/Src/stm32f1xx_hal_msp.c ****     __HAL_RCC_SPI1_CLK_DISABLE();
 201:Core/Src/stm32f1xx_hal_msp.c **** 
 202:Core/Src/stm32f1xx_hal_msp.c ****     /**SPI1 GPIO Configuration
 203:Core/Src/stm32f1xx_hal_msp.c ****     PA5     ------> SPI1_SCK
 204:Core/Src/stm32f1xx_hal_msp.c ****     PA6     ------> SPI1_MISO
 205:Core/Src/stm32f1xx_hal_msp.c ****     PA7     ------> SPI1_MOSI
 206:Core/Src/stm32f1xx_hal_msp.c ****     */
 207:Core/Src/stm32f1xx_hal_msp.c ****     HAL_GPIO_DeInit(GPIOA, GPIO_PIN_5|GPIO_PIN_6|GPIO_PIN_7);
 208:Core/Src/stm32f1xx_hal_msp.c **** 
 209:Core/Src/stm32f1xx_hal_msp.c ****   /* USER CODE BEGIN SPI1_MspDeInit 1 */
 210:Core/Src/stm32f1xx_hal_msp.c **** 
 211:Core/Src/stm32f1xx_hal_msp.c ****   /* USER CODE END SPI1_MspDeInit 1 */
 212:Core/Src/stm32f1xx_hal_msp.c ****   }
 213:Core/Src/stm32f1xx_hal_msp.c **** 
 214:Core/Src/stm32f1xx_hal_msp.c **** }
 422              		.loc 1 214 1 view .LVU99
 423 000a 08BD     		pop	{r3, pc}
 424              	.LVL22:
 425              	.L26:
 200:Core/Src/stm32f1xx_hal_msp.c **** 
 426              		.loc 1 200 5 is_stmt 1 view .LVU100
 427 000c 054A     		ldr	r2, .L27+4
 428 000e 9369     		ldr	r3, [r2, #24]
 429 0010 23F48053 		bic	r3, r3, #4096
 430 0014 9361     		str	r3, [r2, #24]
ARM GAS  C:\Users\DELLPR~1\AppData\Local\Temp\cc4bMeZF.s 			page 13


 207:Core/Src/stm32f1xx_hal_msp.c **** 
 431              		.loc 1 207 5 view .LVU101
 432 0016 E021     		movs	r1, #224
 433 0018 0348     		ldr	r0, .L27+8
 434              	.LVL23:
 207:Core/Src/stm32f1xx_hal_msp.c **** 
 435              		.loc 1 207 5 is_stmt 0 view .LVU102
 436 001a FFF7FEFF 		bl	HAL_GPIO_DeInit
 437              	.LVL24:
 438              		.loc 1 214 1 view .LVU103
 439 001e F4E7     		b	.L23
 440              	.L28:
 441              		.align	2
 442              	.L27:
 443 0020 00300140 		.word	1073819648
 444 0024 00100240 		.word	1073876992
 445 0028 00080140 		.word	1073809408
 446              		.cfi_endproc
 447              	.LFE69:
 449              		.section	.text.HAL_UART_MspInit,"ax",%progbits
 450              		.align	1
 451              		.global	HAL_UART_MspInit
 452              		.syntax unified
 453              		.thumb
 454              		.thumb_func
 456              	HAL_UART_MspInit:
 457              	.LVL25:
 458              	.LFB70:
 215:Core/Src/stm32f1xx_hal_msp.c **** 
 216:Core/Src/stm32f1xx_hal_msp.c **** /**
 217:Core/Src/stm32f1xx_hal_msp.c **** * @brief UART MSP Initialization
 218:Core/Src/stm32f1xx_hal_msp.c **** * This function configures the hardware resources used in this example
 219:Core/Src/stm32f1xx_hal_msp.c **** * @param huart: UART handle pointer
 220:Core/Src/stm32f1xx_hal_msp.c **** * @retval None
 221:Core/Src/stm32f1xx_hal_msp.c **** */
 222:Core/Src/stm32f1xx_hal_msp.c **** void HAL_UART_MspInit(UART_HandleTypeDef* huart)
 223:Core/Src/stm32f1xx_hal_msp.c **** {
 459              		.loc 1 223 1 is_stmt 1 view -0
 460              		.cfi_startproc
 461              		@ args = 0, pretend = 0, frame = 24
 462              		@ frame_needed = 0, uses_anonymous_args = 0
 463              		.loc 1 223 1 is_stmt 0 view .LVU105
 464 0000 10B5     		push	{r4, lr}
 465              	.LCFI13:
 466              		.cfi_def_cfa_offset 8
 467              		.cfi_offset 4, -8
 468              		.cfi_offset 14, -4
 469 0002 86B0     		sub	sp, sp, #24
 470              	.LCFI14:
 471              		.cfi_def_cfa_offset 32
 224:Core/Src/stm32f1xx_hal_msp.c ****   GPIO_InitTypeDef GPIO_InitStruct = {0};
 472              		.loc 1 224 3 is_stmt 1 view .LVU106
 473              		.loc 1 224 20 is_stmt 0 view .LVU107
 474 0004 0023     		movs	r3, #0
 475 0006 0293     		str	r3, [sp, #8]
 476 0008 0393     		str	r3, [sp, #12]
 477 000a 0493     		str	r3, [sp, #16]
ARM GAS  C:\Users\DELLPR~1\AppData\Local\Temp\cc4bMeZF.s 			page 14


 478 000c 0593     		str	r3, [sp, #20]
 225:Core/Src/stm32f1xx_hal_msp.c ****   if(huart->Instance==USART1)
 479              		.loc 1 225 3 is_stmt 1 view .LVU108
 480              		.loc 1 225 11 is_stmt 0 view .LVU109
 481 000e 0268     		ldr	r2, [r0]
 482              		.loc 1 225 5 view .LVU110
 483 0010 174B     		ldr	r3, .L33
 484 0012 9A42     		cmp	r2, r3
 485 0014 01D0     		beq	.L32
 486              	.LVL26:
 487              	.L29:
 226:Core/Src/stm32f1xx_hal_msp.c ****   {
 227:Core/Src/stm32f1xx_hal_msp.c ****   /* USER CODE BEGIN USART1_MspInit 0 */
 228:Core/Src/stm32f1xx_hal_msp.c **** 
 229:Core/Src/stm32f1xx_hal_msp.c ****   /* USER CODE END USART1_MspInit 0 */
 230:Core/Src/stm32f1xx_hal_msp.c ****     /* Peripheral clock enable */
 231:Core/Src/stm32f1xx_hal_msp.c ****     __HAL_RCC_USART1_CLK_ENABLE();
 232:Core/Src/stm32f1xx_hal_msp.c **** 
 233:Core/Src/stm32f1xx_hal_msp.c ****     __HAL_RCC_GPIOA_CLK_ENABLE();
 234:Core/Src/stm32f1xx_hal_msp.c ****     /**USART1 GPIO Configuration
 235:Core/Src/stm32f1xx_hal_msp.c ****     PA9     ------> USART1_TX
 236:Core/Src/stm32f1xx_hal_msp.c ****     PA10     ------> USART1_RX
 237:Core/Src/stm32f1xx_hal_msp.c ****     */
 238:Core/Src/stm32f1xx_hal_msp.c ****     GPIO_InitStruct.Pin = GPIO_PIN_9;
 239:Core/Src/stm32f1xx_hal_msp.c ****     GPIO_InitStruct.Mode = GPIO_MODE_AF_PP;
 240:Core/Src/stm32f1xx_hal_msp.c ****     GPIO_InitStruct.Speed = GPIO_SPEED_FREQ_HIGH;
 241:Core/Src/stm32f1xx_hal_msp.c ****     HAL_GPIO_Init(GPIOA, &GPIO_InitStruct);
 242:Core/Src/stm32f1xx_hal_msp.c **** 
 243:Core/Src/stm32f1xx_hal_msp.c ****     GPIO_InitStruct.Pin = GPIO_PIN_10;
 244:Core/Src/stm32f1xx_hal_msp.c ****     GPIO_InitStruct.Mode = GPIO_MODE_INPUT;
 245:Core/Src/stm32f1xx_hal_msp.c ****     GPIO_InitStruct.Pull = GPIO_NOPULL;
 246:Core/Src/stm32f1xx_hal_msp.c ****     HAL_GPIO_Init(GPIOA, &GPIO_InitStruct);
 247:Core/Src/stm32f1xx_hal_msp.c **** 
 248:Core/Src/stm32f1xx_hal_msp.c ****   /* USER CODE BEGIN USART1_MspInit 1 */
 249:Core/Src/stm32f1xx_hal_msp.c **** 
 250:Core/Src/stm32f1xx_hal_msp.c ****   /* USER CODE END USART1_MspInit 1 */
 251:Core/Src/stm32f1xx_hal_msp.c ****   }
 252:Core/Src/stm32f1xx_hal_msp.c **** 
 253:Core/Src/stm32f1xx_hal_msp.c **** }
 488              		.loc 1 253 1 view .LVU111
 489 0016 06B0     		add	sp, sp, #24
 490              	.LCFI15:
 491              		.cfi_remember_state
 492              		.cfi_def_cfa_offset 8
 493              		@ sp needed
 494 0018 10BD     		pop	{r4, pc}
 495              	.LVL27:
 496              	.L32:
 497              	.LCFI16:
 498              		.cfi_restore_state
 231:Core/Src/stm32f1xx_hal_msp.c **** 
 499              		.loc 1 231 5 is_stmt 1 view .LVU112
 500              	.LBB9:
 231:Core/Src/stm32f1xx_hal_msp.c **** 
 501              		.loc 1 231 5 view .LVU113
 231:Core/Src/stm32f1xx_hal_msp.c **** 
 502              		.loc 1 231 5 view .LVU114
ARM GAS  C:\Users\DELLPR~1\AppData\Local\Temp\cc4bMeZF.s 			page 15


 503 001a 03F55843 		add	r3, r3, #55296
 504 001e 9A69     		ldr	r2, [r3, #24]
 505 0020 42F48042 		orr	r2, r2, #16384
 506 0024 9A61     		str	r2, [r3, #24]
 231:Core/Src/stm32f1xx_hal_msp.c **** 
 507              		.loc 1 231 5 view .LVU115
 508 0026 9A69     		ldr	r2, [r3, #24]
 509 0028 02F48042 		and	r2, r2, #16384
 510 002c 0092     		str	r2, [sp]
 231:Core/Src/stm32f1xx_hal_msp.c **** 
 511              		.loc 1 231 5 view .LVU116
 512 002e 009A     		ldr	r2, [sp]
 513              	.LBE9:
 231:Core/Src/stm32f1xx_hal_msp.c **** 
 514              		.loc 1 231 5 view .LVU117
 233:Core/Src/stm32f1xx_hal_msp.c ****     /**USART1 GPIO Configuration
 515              		.loc 1 233 5 view .LVU118
 516              	.LBB10:
 233:Core/Src/stm32f1xx_hal_msp.c ****     /**USART1 GPIO Configuration
 517              		.loc 1 233 5 view .LVU119
 233:Core/Src/stm32f1xx_hal_msp.c ****     /**USART1 GPIO Configuration
 518              		.loc 1 233 5 view .LVU120
 519 0030 9A69     		ldr	r2, [r3, #24]
 520 0032 42F00402 		orr	r2, r2, #4
 521 0036 9A61     		str	r2, [r3, #24]
 233:Core/Src/stm32f1xx_hal_msp.c ****     /**USART1 GPIO Configuration
 522              		.loc 1 233 5 view .LVU121
 523 0038 9B69     		ldr	r3, [r3, #24]
 524 003a 03F00403 		and	r3, r3, #4
 525 003e 0193     		str	r3, [sp, #4]
 233:Core/Src/stm32f1xx_hal_msp.c ****     /**USART1 GPIO Configuration
 526              		.loc 1 233 5 view .LVU122
 527 0040 019B     		ldr	r3, [sp, #4]
 528              	.LBE10:
 233:Core/Src/stm32f1xx_hal_msp.c ****     /**USART1 GPIO Configuration
 529              		.loc 1 233 5 view .LVU123
 238:Core/Src/stm32f1xx_hal_msp.c ****     GPIO_InitStruct.Mode = GPIO_MODE_AF_PP;
 530              		.loc 1 238 5 view .LVU124
 238:Core/Src/stm32f1xx_hal_msp.c ****     GPIO_InitStruct.Mode = GPIO_MODE_AF_PP;
 531              		.loc 1 238 25 is_stmt 0 view .LVU125
 532 0042 4FF40073 		mov	r3, #512
 533 0046 0293     		str	r3, [sp, #8]
 239:Core/Src/stm32f1xx_hal_msp.c ****     GPIO_InitStruct.Speed = GPIO_SPEED_FREQ_HIGH;
 534              		.loc 1 239 5 is_stmt 1 view .LVU126
 239:Core/Src/stm32f1xx_hal_msp.c ****     GPIO_InitStruct.Speed = GPIO_SPEED_FREQ_HIGH;
 535              		.loc 1 239 26 is_stmt 0 view .LVU127
 536 0048 0223     		movs	r3, #2
 537 004a 0393     		str	r3, [sp, #12]
 240:Core/Src/stm32f1xx_hal_msp.c ****     HAL_GPIO_Init(GPIOA, &GPIO_InitStruct);
 538              		.loc 1 240 5 is_stmt 1 view .LVU128
 240:Core/Src/stm32f1xx_hal_msp.c ****     HAL_GPIO_Init(GPIOA, &GPIO_InitStruct);
 539              		.loc 1 240 27 is_stmt 0 view .LVU129
 540 004c 0323     		movs	r3, #3
 541 004e 0593     		str	r3, [sp, #20]
 241:Core/Src/stm32f1xx_hal_msp.c **** 
 542              		.loc 1 241 5 is_stmt 1 view .LVU130
 543 0050 084C     		ldr	r4, .L33+4
ARM GAS  C:\Users\DELLPR~1\AppData\Local\Temp\cc4bMeZF.s 			page 16


 544 0052 02A9     		add	r1, sp, #8
 545 0054 2046     		mov	r0, r4
 546              	.LVL28:
 241:Core/Src/stm32f1xx_hal_msp.c **** 
 547              		.loc 1 241 5 is_stmt 0 view .LVU131
 548 0056 FFF7FEFF 		bl	HAL_GPIO_Init
 549              	.LVL29:
 243:Core/Src/stm32f1xx_hal_msp.c ****     GPIO_InitStruct.Mode = GPIO_MODE_INPUT;
 550              		.loc 1 243 5 is_stmt 1 view .LVU132
 243:Core/Src/stm32f1xx_hal_msp.c ****     GPIO_InitStruct.Mode = GPIO_MODE_INPUT;
 551              		.loc 1 243 25 is_stmt 0 view .LVU133
 552 005a 4FF48063 		mov	r3, #1024
 553 005e 0293     		str	r3, [sp, #8]
 244:Core/Src/stm32f1xx_hal_msp.c ****     GPIO_InitStruct.Pull = GPIO_NOPULL;
 554              		.loc 1 244 5 is_stmt 1 view .LVU134
 244:Core/Src/stm32f1xx_hal_msp.c ****     GPIO_InitStruct.Pull = GPIO_NOPULL;
 555              		.loc 1 244 26 is_stmt 0 view .LVU135
 556 0060 0023     		movs	r3, #0
 557 0062 0393     		str	r3, [sp, #12]
 245:Core/Src/stm32f1xx_hal_msp.c ****     HAL_GPIO_Init(GPIOA, &GPIO_InitStruct);
 558              		.loc 1 245 5 is_stmt 1 view .LVU136
 245:Core/Src/stm32f1xx_hal_msp.c ****     HAL_GPIO_Init(GPIOA, &GPIO_InitStruct);
 559              		.loc 1 245 26 is_stmt 0 view .LVU137
 560 0064 0493     		str	r3, [sp, #16]
 246:Core/Src/stm32f1xx_hal_msp.c **** 
 561              		.loc 1 246 5 is_stmt 1 view .LVU138
 562 0066 02A9     		add	r1, sp, #8
 563 0068 2046     		mov	r0, r4
 564 006a FFF7FEFF 		bl	HAL_GPIO_Init
 565              	.LVL30:
 566              		.loc 1 253 1 is_stmt 0 view .LVU139
 567 006e D2E7     		b	.L29
 568              	.L34:
 569              		.align	2
 570              	.L33:
 571 0070 00380140 		.word	1073821696
 572 0074 00080140 		.word	1073809408
 573              		.cfi_endproc
 574              	.LFE70:
 576              		.section	.text.HAL_UART_MspDeInit,"ax",%progbits
 577              		.align	1
 578              		.global	HAL_UART_MspDeInit
 579              		.syntax unified
 580              		.thumb
 581              		.thumb_func
 583              	HAL_UART_MspDeInit:
 584              	.LVL31:
 585              	.LFB71:
 254:Core/Src/stm32f1xx_hal_msp.c **** 
 255:Core/Src/stm32f1xx_hal_msp.c **** /**
 256:Core/Src/stm32f1xx_hal_msp.c **** * @brief UART MSP De-Initialization
 257:Core/Src/stm32f1xx_hal_msp.c **** * This function freeze the hardware resources used in this example
 258:Core/Src/stm32f1xx_hal_msp.c **** * @param huart: UART handle pointer
 259:Core/Src/stm32f1xx_hal_msp.c **** * @retval None
 260:Core/Src/stm32f1xx_hal_msp.c **** */
 261:Core/Src/stm32f1xx_hal_msp.c **** void HAL_UART_MspDeInit(UART_HandleTypeDef* huart)
 262:Core/Src/stm32f1xx_hal_msp.c **** {
ARM GAS  C:\Users\DELLPR~1\AppData\Local\Temp\cc4bMeZF.s 			page 17


 586              		.loc 1 262 1 is_stmt 1 view -0
 587              		.cfi_startproc
 588              		@ args = 0, pretend = 0, frame = 0
 589              		@ frame_needed = 0, uses_anonymous_args = 0
 590              		.loc 1 262 1 is_stmt 0 view .LVU141
 591 0000 08B5     		push	{r3, lr}
 592              	.LCFI17:
 593              		.cfi_def_cfa_offset 8
 594              		.cfi_offset 3, -8
 595              		.cfi_offset 14, -4
 263:Core/Src/stm32f1xx_hal_msp.c ****   if(huart->Instance==USART1)
 596              		.loc 1 263 3 is_stmt 1 view .LVU142
 597              		.loc 1 263 11 is_stmt 0 view .LVU143
 598 0002 0268     		ldr	r2, [r0]
 599              		.loc 1 263 5 view .LVU144
 600 0004 074B     		ldr	r3, .L39
 601 0006 9A42     		cmp	r2, r3
 602 0008 00D0     		beq	.L38
 603              	.LVL32:
 604              	.L35:
 264:Core/Src/stm32f1xx_hal_msp.c ****   {
 265:Core/Src/stm32f1xx_hal_msp.c ****   /* USER CODE BEGIN USART1_MspDeInit 0 */
 266:Core/Src/stm32f1xx_hal_msp.c **** 
 267:Core/Src/stm32f1xx_hal_msp.c ****   /* USER CODE END USART1_MspDeInit 0 */
 268:Core/Src/stm32f1xx_hal_msp.c ****     /* Peripheral clock disable */
 269:Core/Src/stm32f1xx_hal_msp.c ****     __HAL_RCC_USART1_CLK_DISABLE();
 270:Core/Src/stm32f1xx_hal_msp.c **** 
 271:Core/Src/stm32f1xx_hal_msp.c ****     /**USART1 GPIO Configuration
 272:Core/Src/stm32f1xx_hal_msp.c ****     PA9     ------> USART1_TX
 273:Core/Src/stm32f1xx_hal_msp.c ****     PA10     ------> USART1_RX
 274:Core/Src/stm32f1xx_hal_msp.c ****     */
 275:Core/Src/stm32f1xx_hal_msp.c ****     HAL_GPIO_DeInit(GPIOA, GPIO_PIN_9|GPIO_PIN_10);
 276:Core/Src/stm32f1xx_hal_msp.c **** 
 277:Core/Src/stm32f1xx_hal_msp.c ****   /* USER CODE BEGIN USART1_MspDeInit 1 */
 278:Core/Src/stm32f1xx_hal_msp.c **** 
 279:Core/Src/stm32f1xx_hal_msp.c ****   /* USER CODE END USART1_MspDeInit 1 */
 280:Core/Src/stm32f1xx_hal_msp.c ****   }
 281:Core/Src/stm32f1xx_hal_msp.c **** 
 282:Core/Src/stm32f1xx_hal_msp.c **** }
 605              		.loc 1 282 1 view .LVU145
 606 000a 08BD     		pop	{r3, pc}
 607              	.LVL33:
 608              	.L38:
 269:Core/Src/stm32f1xx_hal_msp.c **** 
 609              		.loc 1 269 5 is_stmt 1 view .LVU146
 610 000c 064A     		ldr	r2, .L39+4
 611 000e 9369     		ldr	r3, [r2, #24]
 612 0010 23F48043 		bic	r3, r3, #16384
 613 0014 9361     		str	r3, [r2, #24]
 275:Core/Src/stm32f1xx_hal_msp.c **** 
 614              		.loc 1 275 5 view .LVU147
 615 0016 4FF4C061 		mov	r1, #1536
 616 001a 0448     		ldr	r0, .L39+8
 617              	.LVL34:
 275:Core/Src/stm32f1xx_hal_msp.c **** 
 618              		.loc 1 275 5 is_stmt 0 view .LVU148
 619 001c FFF7FEFF 		bl	HAL_GPIO_DeInit
ARM GAS  C:\Users\DELLPR~1\AppData\Local\Temp\cc4bMeZF.s 			page 18


 620              	.LVL35:
 621              		.loc 1 282 1 view .LVU149
 622 0020 F3E7     		b	.L35
 623              	.L40:
 624 0022 00BF     		.align	2
 625              	.L39:
 626 0024 00380140 		.word	1073821696
 627 0028 00100240 		.word	1073876992
 628 002c 00080140 		.word	1073809408
 629              		.cfi_endproc
 630              	.LFE71:
 632              		.text
 633              	.Letext0:
 634              		.file 2 "Drivers/CMSIS/Device/ST/STM32F1xx/Include/stm32f103xb.h"
 635              		.file 3 "c:\\gcc-arm-11.2-2022.02-mingw-w64-i686-arm-none-eabi\\arm-none-eabi\\include\\machine\\_
 636              		.file 4 "c:\\gcc-arm-11.2-2022.02-mingw-w64-i686-arm-none-eabi\\arm-none-eabi\\include\\sys\\_stdi
 637              		.file 5 "Drivers/CMSIS/Device/ST/STM32F1xx/Include/stm32f1xx.h"
 638              		.file 6 "Drivers/STM32F1xx_HAL_Driver/Inc/stm32f1xx_hal_def.h"
 639              		.file 7 "Drivers/STM32F1xx_HAL_Driver/Inc/stm32f1xx_hal_gpio.h"
 640              		.file 8 "Drivers/STM32F1xx_HAL_Driver/Inc/stm32f1xx_hal_dma.h"
 641              		.file 9 "Drivers/STM32F1xx_HAL_Driver/Inc/stm32f1xx_hal_adc.h"
 642              		.file 10 "Drivers/STM32F1xx_HAL_Driver/Inc/stm32f1xx_hal_spi.h"
 643              		.file 11 "Drivers/STM32F1xx_HAL_Driver/Inc/stm32f1xx_hal_uart.h"
 644              		.file 12 "Drivers/STM32F1xx_HAL_Driver/Inc/stm32f1xx_hal_cortex.h"
ARM GAS  C:\Users\DELLPR~1\AppData\Local\Temp\cc4bMeZF.s 			page 19

